ARM GAS  /tmp/cckBeWOW.s 			page 1


   1              		.cpu cortex-m7
   2              		.arch armv7e-m
   3              		.fpu fpv5-d16
   4              		.eabi_attribute 28, 1
   5              		.eabi_attribute 20, 1
   6              		.eabi_attribute 21, 1
   7              		.eabi_attribute 23, 3
   8              		.eabi_attribute 24, 1
   9              		.eabi_attribute 25, 1
  10              		.eabi_attribute 26, 1
  11              		.eabi_attribute 30, 2
  12              		.eabi_attribute 34, 1
  13              		.eabi_attribute 18, 4
  14              		.file	"adc_and_log.cpp"
  15              		.text
  16              	.Ltext0:
  17              		.cfi_sections	.debug_frame
  18              		.file 1 "adc_and_log.cpp"
  19              		.section	.text._ZN5daisy9DaisySeedD2Ev,"axG",%progbits,_ZN5daisy9DaisySeedD5Ev,comdat
  20              		.align	1
  21              		.p2align 2,,3
  22              		.weak	_ZN5daisy9DaisySeedD2Ev
  23              		.syntax unified
  24              		.thumb
  25              		.thumb_func
  27              	_ZN5daisy9DaisySeedD2Ev:
  28              	.LVL0:
  29              	.LFB2344:
  30              		.file 2 "../../DaisyExamples/libDaisy//src/daisy_seed.h"
   1:../../DaisyExamples/libDaisy//src/daisy_seed.h **** #pragma once
   2:../../DaisyExamples/libDaisy//src/daisy_seed.h **** #ifndef DSY_SEED_H
   3:../../DaisyExamples/libDaisy//src/daisy_seed.h **** #define DSY_SEED_H
   4:../../DaisyExamples/libDaisy//src/daisy_seed.h **** 
   5:../../DaisyExamples/libDaisy//src/daisy_seed.h **** #include "daisy.h"
   6:../../DaisyExamples/libDaisy//src/daisy_seed.h **** 
   7:../../DaisyExamples/libDaisy//src/daisy_seed.h **** //Uncomment this out if you're still using the rev2 hardware
   8:../../DaisyExamples/libDaisy//src/daisy_seed.h **** //#define SEED_REV2
   9:../../DaisyExamples/libDaisy//src/daisy_seed.h **** 
  10:../../DaisyExamples/libDaisy//src/daisy_seed.h **** namespace daisy
  11:../../DaisyExamples/libDaisy//src/daisy_seed.h **** {
  12:../../DaisyExamples/libDaisy//src/daisy_seed.h **** /**
  13:../../DaisyExamples/libDaisy//src/daisy_seed.h ****    @brief This is the higher-level interface for the Daisy board. \n 
  14:../../DaisyExamples/libDaisy//src/daisy_seed.h ****     All basic peripheral configuration/initialization is setup here. \n
  15:../../DaisyExamples/libDaisy//src/daisy_seed.h **** 
  16:../../DaisyExamples/libDaisy//src/daisy_seed.h ****    @ingroup boards
  17:../../DaisyExamples/libDaisy//src/daisy_seed.h **** */
  18:../../DaisyExamples/libDaisy//src/daisy_seed.h **** class DaisySeed
  19:../../DaisyExamples/libDaisy//src/daisy_seed.h **** {
  20:../../DaisyExamples/libDaisy//src/daisy_seed.h ****   public:
  21:../../DaisyExamples/libDaisy//src/daisy_seed.h ****     DaisySeed() {}
  22:../../DaisyExamples/libDaisy//src/daisy_seed.h ****     ~DaisySeed() {}
  31              		.loc 2 22 5 view -0
  32              		.cfi_startproc
  33              		@ args = 0, pretend = 0, frame = 0
  34              		@ frame_needed = 0, uses_anonymous_args = 0
  35              		@ link register save eliminated.
  36              	.LBB65:
ARM GAS  /tmp/cckBeWOW.s 			page 2


  37              	.LBI65:
  38              		.file 3 "../../DaisyExamples/libDaisy//src/sys/system.h"
   1:../../DaisyExamples/libDaisy//src/sys/system.h **** #ifndef DSY_SYSTEM_H
   2:../../DaisyExamples/libDaisy//src/sys/system.h **** #define DSY_SYSTEM_H
   3:../../DaisyExamples/libDaisy//src/sys/system.h **** 
   4:../../DaisyExamples/libDaisy//src/sys/system.h **** #ifndef UNIT_TEST // for unit tests, a dummy implementation is provided below
   5:../../DaisyExamples/libDaisy//src/sys/system.h **** 
   6:../../DaisyExamples/libDaisy//src/sys/system.h **** #include <cstdint>
   7:../../DaisyExamples/libDaisy//src/sys/system.h **** #include "per/tim.h"
   8:../../DaisyExamples/libDaisy//src/sys/system.h **** 
   9:../../DaisyExamples/libDaisy//src/sys/system.h **** namespace daisy
  10:../../DaisyExamples/libDaisy//src/sys/system.h **** {
  11:../../DaisyExamples/libDaisy//src/sys/system.h **** /** A handle for interacting with the Core System. 
  12:../../DaisyExamples/libDaisy//src/sys/system.h ****  ** This includes the Clock tree, MPU, global DMA initialization,
  13:../../DaisyExamples/libDaisy//src/sys/system.h ****  ** cache handling, and any other necessary global initiailzation
  14:../../DaisyExamples/libDaisy//src/sys/system.h ****  **
  15:../../DaisyExamples/libDaisy//src/sys/system.h ****  ** @author shensley
  16:../../DaisyExamples/libDaisy//src/sys/system.h ****  ** @ingroup system
  17:../../DaisyExamples/libDaisy//src/sys/system.h ****  */
  18:../../DaisyExamples/libDaisy//src/sys/system.h **** class System
  19:../../DaisyExamples/libDaisy//src/sys/system.h **** {
  20:../../DaisyExamples/libDaisy//src/sys/system.h ****   public:
  21:../../DaisyExamples/libDaisy//src/sys/system.h ****     /** Contains settings for initializing the System */
  22:../../DaisyExamples/libDaisy//src/sys/system.h ****     struct Config
  23:../../DaisyExamples/libDaisy//src/sys/system.h ****     {
  24:../../DaisyExamples/libDaisy//src/sys/system.h ****         /** Specifies the system clock frequency that feeds APB/AHB clocks, etc. */
  25:../../DaisyExamples/libDaisy//src/sys/system.h ****         enum class SysClkFreq
  26:../../DaisyExamples/libDaisy//src/sys/system.h ****         {
  27:../../DaisyExamples/libDaisy//src/sys/system.h ****             FREQ_400MHZ,
  28:../../DaisyExamples/libDaisy//src/sys/system.h ****             FREQ_480MHZ,
  29:../../DaisyExamples/libDaisy//src/sys/system.h ****         };
  30:../../DaisyExamples/libDaisy//src/sys/system.h **** 
  31:../../DaisyExamples/libDaisy//src/sys/system.h ****         /** Method to call on the struct to set to defaults
  32:../../DaisyExamples/libDaisy//src/sys/system.h ****          ** CPU Freq set to 400MHz
  33:../../DaisyExamples/libDaisy//src/sys/system.h ****          ** Cache Enabled 
  34:../../DaisyExamples/libDaisy//src/sys/system.h ****          ** */
  35:../../DaisyExamples/libDaisy//src/sys/system.h ****         void Defaults()
  36:../../DaisyExamples/libDaisy//src/sys/system.h ****         {
  37:../../DaisyExamples/libDaisy//src/sys/system.h ****             cpu_freq    = SysClkFreq::FREQ_400MHZ;
  38:../../DaisyExamples/libDaisy//src/sys/system.h ****             use_dcache  = true;
  39:../../DaisyExamples/libDaisy//src/sys/system.h ****             use_icache  = true;
  40:../../DaisyExamples/libDaisy//src/sys/system.h ****             skip_clocks = false;
  41:../../DaisyExamples/libDaisy//src/sys/system.h ****         }
  42:../../DaisyExamples/libDaisy//src/sys/system.h **** 
  43:../../DaisyExamples/libDaisy//src/sys/system.h ****         /** Method to call on the struct to set to boost mode:
  44:../../DaisyExamples/libDaisy//src/sys/system.h ****          ** CPU Freq set to 480MHz
  45:../../DaisyExamples/libDaisy//src/sys/system.h ****          ** Cache Enabled 
  46:../../DaisyExamples/libDaisy//src/sys/system.h ****          ** */
  47:../../DaisyExamples/libDaisy//src/sys/system.h ****         void Boost()
  48:../../DaisyExamples/libDaisy//src/sys/system.h ****         {
  49:../../DaisyExamples/libDaisy//src/sys/system.h ****             cpu_freq    = SysClkFreq::FREQ_480MHZ;
  50:../../DaisyExamples/libDaisy//src/sys/system.h ****             use_dcache  = true;
  51:../../DaisyExamples/libDaisy//src/sys/system.h ****             use_icache  = true;
  52:../../DaisyExamples/libDaisy//src/sys/system.h ****             skip_clocks = false;
  53:../../DaisyExamples/libDaisy//src/sys/system.h ****         }
  54:../../DaisyExamples/libDaisy//src/sys/system.h **** 
  55:../../DaisyExamples/libDaisy//src/sys/system.h ****         SysClkFreq cpu_freq;
ARM GAS  /tmp/cckBeWOW.s 			page 3


  56:../../DaisyExamples/libDaisy//src/sys/system.h ****         bool       use_dcache;
  57:../../DaisyExamples/libDaisy//src/sys/system.h ****         bool       use_icache;
  58:../../DaisyExamples/libDaisy//src/sys/system.h ****         bool       skip_clocks;
  59:../../DaisyExamples/libDaisy//src/sys/system.h ****     };
  60:../../DaisyExamples/libDaisy//src/sys/system.h **** 
  61:../../DaisyExamples/libDaisy//src/sys/system.h ****     /** Describes the different regions of memory available to the Daisy
  62:../../DaisyExamples/libDaisy//src/sys/system.h ****      * 
  63:../../DaisyExamples/libDaisy//src/sys/system.h ****      */
  64:../../DaisyExamples/libDaisy//src/sys/system.h ****     enum MemoryRegion
  65:../../DaisyExamples/libDaisy//src/sys/system.h ****     {
  66:../../DaisyExamples/libDaisy//src/sys/system.h ****         INTERNAL_FLASH = 0,
  67:../../DaisyExamples/libDaisy//src/sys/system.h ****         ITCMRAM,
  68:../../DaisyExamples/libDaisy//src/sys/system.h ****         DTCMRAM,
  69:../../DaisyExamples/libDaisy//src/sys/system.h ****         SRAM_D1,
  70:../../DaisyExamples/libDaisy//src/sys/system.h ****         SRAM_D2,
  71:../../DaisyExamples/libDaisy//src/sys/system.h ****         SRAM_D3,
  72:../../DaisyExamples/libDaisy//src/sys/system.h ****         SDRAM,
  73:../../DaisyExamples/libDaisy//src/sys/system.h ****         QSPI,
  74:../../DaisyExamples/libDaisy//src/sys/system.h ****         INVALID_ADDRESS,
  75:../../DaisyExamples/libDaisy//src/sys/system.h ****     };
  76:../../DaisyExamples/libDaisy//src/sys/system.h **** 
  77:../../DaisyExamples/libDaisy//src/sys/system.h ****     System() {}
  78:../../DaisyExamples/libDaisy//src/sys/system.h ****     ~System() {}
  39              		.loc 3 78 5 view .LVU1
  40              		.loc 3 78 5 is_stmt 0 view .LVU2
  41              	.LBE65:
  42              	.LBB66:
  43              	.LBI66:
  44              		.file 4 "../../DaisyExamples/libDaisy//src/hid/usb.h"
   1:../../DaisyExamples/libDaisy//src/hid/usb.h **** #pragma once
   2:../../DaisyExamples/libDaisy//src/hid/usb.h **** #ifndef DSY_HID_USB_H
   3:../../DaisyExamples/libDaisy//src/hid/usb.h **** #define DSY_HID_USB_H
   4:../../DaisyExamples/libDaisy//src/hid/usb.h **** #include <stdint.h>
   5:../../DaisyExamples/libDaisy//src/hid/usb.h **** #include <stdlib.h>
   6:../../DaisyExamples/libDaisy//src/hid/usb.h **** 
   7:../../DaisyExamples/libDaisy//src/hid/usb.h **** namespace daisy
   8:../../DaisyExamples/libDaisy//src/hid/usb.h **** /** @addtogroup human_interface
   9:../../DaisyExamples/libDaisy//src/hid/usb.h ****     @{
  10:../../DaisyExamples/libDaisy//src/hid/usb.h **** */
  11:../../DaisyExamples/libDaisy//src/hid/usb.h **** 
  12:../../DaisyExamples/libDaisy//src/hid/usb.h **** {
  13:../../DaisyExamples/libDaisy//src/hid/usb.h **** /** 
  14:../../DaisyExamples/libDaisy//src/hid/usb.h ****     @brief Interface for initializing and using the USB Peripherals on the daisy
  15:../../DaisyExamples/libDaisy//src/hid/usb.h ****     @author Stephen Hensley
  16:../../DaisyExamples/libDaisy//src/hid/usb.h ****     @date December 2019
  17:../../DaisyExamples/libDaisy//src/hid/usb.h **** */
  18:../../DaisyExamples/libDaisy//src/hid/usb.h **** class UsbHandle
  19:../../DaisyExamples/libDaisy//src/hid/usb.h **** {
  20:../../DaisyExamples/libDaisy//src/hid/usb.h ****   public:
  21:../../DaisyExamples/libDaisy//src/hid/usb.h ****     /** Return values for USBHandle Functions */
  22:../../DaisyExamples/libDaisy//src/hid/usb.h ****     enum class Result
  23:../../DaisyExamples/libDaisy//src/hid/usb.h ****     {
  24:../../DaisyExamples/libDaisy//src/hid/usb.h ****         OK,
  25:../../DaisyExamples/libDaisy//src/hid/usb.h ****         ERR,
  26:../../DaisyExamples/libDaisy//src/hid/usb.h ****     };
  27:../../DaisyExamples/libDaisy//src/hid/usb.h **** 
  28:../../DaisyExamples/libDaisy//src/hid/usb.h ****     /** Specified which of the two USB Peripherals to initialize. */
ARM GAS  /tmp/cckBeWOW.s 			page 4


  29:../../DaisyExamples/libDaisy//src/hid/usb.h ****     enum UsbPeriph
  30:../../DaisyExamples/libDaisy//src/hid/usb.h ****     {
  31:../../DaisyExamples/libDaisy//src/hid/usb.h ****         FS_INTERNAL, /**< Internal pin */
  32:../../DaisyExamples/libDaisy//src/hid/usb.h ****         FS_EXTERNAL, /**< FS External D+ pin is Pin 38 (GPIO32). FS External D- pin is Pin 37 (GPIO
  33:../../DaisyExamples/libDaisy//src/hid/usb.h ****         FS_BOTH,     /**< Both */
  34:../../DaisyExamples/libDaisy//src/hid/usb.h ****     };
  35:../../DaisyExamples/libDaisy//src/hid/usb.h **** 
  36:../../DaisyExamples/libDaisy//src/hid/usb.h **** 
  37:../../DaisyExamples/libDaisy//src/hid/usb.h ****     /** Function called upon reception of a buffer */
  38:../../DaisyExamples/libDaisy//src/hid/usb.h ****     typedef void (*ReceiveCallback)(uint8_t* buff, uint32_t* len);
  39:../../DaisyExamples/libDaisy//src/hid/usb.h **** 
  40:../../DaisyExamples/libDaisy//src/hid/usb.h ****     UsbHandle() {}
  41:../../DaisyExamples/libDaisy//src/hid/usb.h **** 
  42:../../DaisyExamples/libDaisy//src/hid/usb.h ****     ~UsbHandle() {}
  45              		.loc 4 42 5 is_stmt 1 view .LVU3
  46              		.loc 4 42 5 is_stmt 0 view .LVU4
  47              	.LBE66:
  48              	.LBB67:
  49              	.LBI67:
  50              		.file 5 "../../DaisyExamples/libDaisy//src/per/adc.h"
   1:../../DaisyExamples/libDaisy//src/per/adc.h **** #pragma once
   2:../../DaisyExamples/libDaisy//src/per/adc.h **** #ifndef DSY_ADC_H
   3:../../DaisyExamples/libDaisy//src/per/adc.h **** #define DSY_ADC_H /**< Macro */
   4:../../DaisyExamples/libDaisy//src/per/adc.h **** #include <stdint.h>
   5:../../DaisyExamples/libDaisy//src/per/adc.h **** #include <stdlib.h>
   6:../../DaisyExamples/libDaisy//src/per/adc.h **** #include "daisy_core.h"
   7:../../DaisyExamples/libDaisy//src/per/adc.h **** #include "per/gpio.h"
   8:../../DaisyExamples/libDaisy//src/per/adc.h **** 
   9:../../DaisyExamples/libDaisy//src/per/adc.h **** #define DSY_ADC_MAX_CHANNELS 16 /**< Maximum number of ADC channels */
  10:../../DaisyExamples/libDaisy//src/per/adc.h **** 
  11:../../DaisyExamples/libDaisy//src/per/adc.h **** namespace daisy
  12:../../DaisyExamples/libDaisy//src/per/adc.h **** {
  13:../../DaisyExamples/libDaisy//src/per/adc.h **** /** @addtogroup per_analog
  14:../../DaisyExamples/libDaisy//src/per/adc.h ****     @{
  15:../../DaisyExamples/libDaisy//src/per/adc.h **** */
  16:../../DaisyExamples/libDaisy//src/per/adc.h **** 
  17:../../DaisyExamples/libDaisy//src/per/adc.h **** /* While there may not be many configuration options here,
  18:../../DaisyExamples/libDaisy//src/per/adc.h **** using a struct like this allows us to add more configuration
  19:../../DaisyExamples/libDaisy//src/per/adc.h **** later without breaking existing functionality.
  20:../../DaisyExamples/libDaisy//src/per/adc.h **** */
  21:../../DaisyExamples/libDaisy//src/per/adc.h **** 
  22:../../DaisyExamples/libDaisy//src/per/adc.h **** /** @brief   Configuration Structure for an ADC Channel 
  23:../../DaisyExamples/libDaisy//src/per/adc.h ****  *  @details This can be used to configure a a single input, 
  24:../../DaisyExamples/libDaisy//src/per/adc.h ****  *           or a multiplexed input, allowing up to 8 inputs on 
  25:../../DaisyExamples/libDaisy//src/per/adc.h ****  *           one channel.
  26:../../DaisyExamples/libDaisy//src/per/adc.h ****  *  @note    Sharing data lines to multiple muxes _is_ possible, but
  27:../../DaisyExamples/libDaisy//src/per/adc.h ****  *           each channel sharing data lines must be set to the maximum
  28:../../DaisyExamples/libDaisy//src/per/adc.h ****  *           number of channels, even if some multiplexers have fewer
  29:../../DaisyExamples/libDaisy//src/per/adc.h ****  *           inputs connected.
  30:../../DaisyExamples/libDaisy//src/per/adc.h **** */
  31:../../DaisyExamples/libDaisy//src/per/adc.h **** struct AdcChannelConfig
  32:../../DaisyExamples/libDaisy//src/per/adc.h **** {
  33:../../DaisyExamples/libDaisy//src/per/adc.h ****     /** Which pin to use for multiplexing */
  34:../../DaisyExamples/libDaisy//src/per/adc.h ****     enum MuxPin
  35:../../DaisyExamples/libDaisy//src/per/adc.h ****     {
  36:../../DaisyExamples/libDaisy//src/per/adc.h ****         MUX_SEL_0,    /**< & */
  37:../../DaisyExamples/libDaisy//src/per/adc.h ****         MUX_SEL_1,    /**< & */
ARM GAS  /tmp/cckBeWOW.s 			page 5


  38:../../DaisyExamples/libDaisy//src/per/adc.h ****         MUX_SEL_2,    /**< & */
  39:../../DaisyExamples/libDaisy//src/per/adc.h ****         MUX_SEL_LAST, /**< & */
  40:../../DaisyExamples/libDaisy//src/per/adc.h ****     };
  41:../../DaisyExamples/libDaisy//src/per/adc.h **** 
  42:../../DaisyExamples/libDaisy//src/per/adc.h ****     /** Initializes a single ADC pin as an ADC. 
  43:../../DaisyExamples/libDaisy//src/per/adc.h ****     \param pin Pin to init.
  44:../../DaisyExamples/libDaisy//src/per/adc.h ****      */
  45:../../DaisyExamples/libDaisy//src/per/adc.h ****     void InitSingle(dsy_gpio_pin pin);
  46:../../DaisyExamples/libDaisy//src/per/adc.h **** 
  47:../../DaisyExamples/libDaisy//src/per/adc.h ****     /** 
  48:../../DaisyExamples/libDaisy//src/per/adc.h ****     Initializes a single ADC pin as a Multiplexed ADC.
  49:../../DaisyExamples/libDaisy//src/per/adc.h ****     Requires a CD405X Multiplexer connected to the pin.
  50:../../DaisyExamples/libDaisy//src/per/adc.h ****     You only need to supply the mux pins that are required,
  51:../../DaisyExamples/libDaisy//src/per/adc.h ****     e.g. a 4052 mux would only require mux_0 and mux_1.
  52:../../DaisyExamples/libDaisy//src/per/adc.h ****     Internal Callbacks handle the pin addressing.
  53:../../DaisyExamples/libDaisy//src/per/adc.h ****     \param mux_channels must be 1-8
  54:../../DaisyExamples/libDaisy//src/per/adc.h ****     \param mux_0 First mux pin
  55:../../DaisyExamples/libDaisy//src/per/adc.h ****     \param mux_1 Second mux pin
  56:../../DaisyExamples/libDaisy//src/per/adc.h ****     \param mux_2 Third mux pin
  57:../../DaisyExamples/libDaisy//src/per/adc.h ****     \param adc_pin &
  58:../../DaisyExamples/libDaisy//src/per/adc.h ****     */
  59:../../DaisyExamples/libDaisy//src/per/adc.h ****     void InitMux(dsy_gpio_pin adc_pin,
  60:../../DaisyExamples/libDaisy//src/per/adc.h ****                  size_t       mux_channels,
  61:../../DaisyExamples/libDaisy//src/per/adc.h ****                  dsy_gpio_pin mux_0,
  62:../../DaisyExamples/libDaisy//src/per/adc.h ****                  dsy_gpio_pin mux_1 = {DSY_GPIOX, 0},
  63:../../DaisyExamples/libDaisy//src/per/adc.h ****                  dsy_gpio_pin mux_2 = {DSY_GPIOX, 0});
  64:../../DaisyExamples/libDaisy//src/per/adc.h **** 
  65:../../DaisyExamples/libDaisy//src/per/adc.h ****     dsy_gpio pin_;                   /**< & */
  66:../../DaisyExamples/libDaisy//src/per/adc.h ****     dsy_gpio mux_pin_[MUX_SEL_LAST]; /**< & */
  67:../../DaisyExamples/libDaisy//src/per/adc.h ****     uint8_t  mux_channels_;          /**< & */
  68:../../DaisyExamples/libDaisy//src/per/adc.h **** };
  69:../../DaisyExamples/libDaisy//src/per/adc.h **** 
  70:../../DaisyExamples/libDaisy//src/per/adc.h **** /**
  71:../../DaisyExamples/libDaisy//src/per/adc.h ****    @brief Handler for analog to digital conversion
  72:../../DaisyExamples/libDaisy//src/per/adc.h **** */
  73:../../DaisyExamples/libDaisy//src/per/adc.h **** class AdcHandle
  74:../../DaisyExamples/libDaisy//src/per/adc.h **** {
  75:../../DaisyExamples/libDaisy//src/per/adc.h ****   public:
  76:../../DaisyExamples/libDaisy//src/per/adc.h ****     /** Supported oversampling amounts */
  77:../../DaisyExamples/libDaisy//src/per/adc.h ****     enum OverSampling
  78:../../DaisyExamples/libDaisy//src/per/adc.h ****     {
  79:../../DaisyExamples/libDaisy//src/per/adc.h ****         OVS_NONE, /**< & */
  80:../../DaisyExamples/libDaisy//src/per/adc.h ****         OVS_4,    /**< & */
  81:../../DaisyExamples/libDaisy//src/per/adc.h ****         OVS_8,    /**< & */
  82:../../DaisyExamples/libDaisy//src/per/adc.h ****         OVS_16,   /**< & */
  83:../../DaisyExamples/libDaisy//src/per/adc.h ****         OVS_32,   /**< & */
  84:../../DaisyExamples/libDaisy//src/per/adc.h ****         OVS_64,   /**< & */
  85:../../DaisyExamples/libDaisy//src/per/adc.h ****         OVS_128,  /**< & */
  86:../../DaisyExamples/libDaisy//src/per/adc.h ****         OVS_256,  /**< & */
  87:../../DaisyExamples/libDaisy//src/per/adc.h ****         OVS_512,  /**< & */
  88:../../DaisyExamples/libDaisy//src/per/adc.h ****         OVS_1024, /**< & */
  89:../../DaisyExamples/libDaisy//src/per/adc.h ****         OVS_LAST, /**< & */
  90:../../DaisyExamples/libDaisy//src/per/adc.h ****     };
  91:../../DaisyExamples/libDaisy//src/per/adc.h **** 
  92:../../DaisyExamples/libDaisy//src/per/adc.h ****     AdcHandle() {}
  93:../../DaisyExamples/libDaisy//src/per/adc.h ****     ~AdcHandle() {}
  51              		.loc 5 93 5 is_stmt 1 view .LVU5
ARM GAS  /tmp/cckBeWOW.s 			page 6


  52              		.loc 5 93 5 is_stmt 0 view .LVU6
  53              	.LBE67:
  54              	.LBB68:
  55              	.LBI68:
  56              		.file 6 "../../DaisyExamples/libDaisy//src/hid/audio.h"
   1:../../DaisyExamples/libDaisy//src/hid/audio.h **** #ifndef DSY_AUDIO_H
   2:../../DaisyExamples/libDaisy//src/hid/audio.h **** #define DSY_AUDIO_H /**< & */
   3:../../DaisyExamples/libDaisy//src/hid/audio.h **** 
   4:../../DaisyExamples/libDaisy//src/hid/audio.h **** #include "per/sai.h"
   5:../../DaisyExamples/libDaisy//src/hid/audio.h **** 
   6:../../DaisyExamples/libDaisy//src/hid/audio.h **** namespace daisy
   7:../../DaisyExamples/libDaisy//src/hid/audio.h **** {
   8:../../DaisyExamples/libDaisy//src/hid/audio.h **** /** @brief Audio Engine Handle
   9:../../DaisyExamples/libDaisy//src/hid/audio.h ****  *  @ingroup audio 
  10:../../DaisyExamples/libDaisy//src/hid/audio.h ****  *  @details This class allows for higher level access to an audio engine.
  11:../../DaisyExamples/libDaisy//src/hid/audio.h ****  *           If you're using a SOM like the DaisySeed or DaisyPatchSM (or any 
  12:../../DaisyExamples/libDaisy//src/hid/audio.h ****  *            board that includes one of those objects) then the intialization
  13:../../DaisyExamples/libDaisy//src/hid/audio.h ****  *            is already taken  care of.
  14:../../DaisyExamples/libDaisy//src/hid/audio.h ****  *           If you're setting up your own custom hardware, or need to make changes
  15:../../DaisyExamples/libDaisy//src/hid/audio.h ****  *           you will have to take the following steps:
  16:../../DaisyExamples/libDaisy//src/hid/audio.h ****  *             1. Create and Initialize an SaiHandle or two depending on your requirements
  17:../../DaisyExamples/libDaisy//src/hid/audio.h ****  *             2. Initialize the Audio Handle with the desired settings and the Initialized SaiHand
  18:../../DaisyExamples/libDaisy//src/hid/audio.h ****  *             3. If the connected codec requires special configuration or initialization, do so
  19:../../DaisyExamples/libDaisy//src/hid/audio.h ****  *             4. Write a callback method using either the AudioCallback or the InterleavingAudioCa
  20:../../DaisyExamples/libDaisy//src/hid/audio.h ****  *             5. Start the Audio using one of the StartAudio function
  21:../../DaisyExamples/libDaisy//src/hid/audio.h ****  */
  22:../../DaisyExamples/libDaisy//src/hid/audio.h **** class AudioHandle
  23:../../DaisyExamples/libDaisy//src/hid/audio.h **** {
  24:../../DaisyExamples/libDaisy//src/hid/audio.h ****   public:
  25:../../DaisyExamples/libDaisy//src/hid/audio.h ****     /** Manually configurable details about the Audio Engine */
  26:../../DaisyExamples/libDaisy//src/hid/audio.h ****     /** TODO: Figure out how to get samplerate in here. */
  27:../../DaisyExamples/libDaisy//src/hid/audio.h ****     struct Config
  28:../../DaisyExamples/libDaisy//src/hid/audio.h ****     {
  29:../../DaisyExamples/libDaisy//src/hid/audio.h ****         /** number of samples to process per callback */
  30:../../DaisyExamples/libDaisy//src/hid/audio.h ****         size_t blocksize;
  31:../../DaisyExamples/libDaisy//src/hid/audio.h **** 
  32:../../DaisyExamples/libDaisy//src/hid/audio.h ****         /**< Sample rate of audio */
  33:../../DaisyExamples/libDaisy//src/hid/audio.h ****         SaiHandle::Config::SampleRate samplerate;
  34:../../DaisyExamples/libDaisy//src/hid/audio.h **** 
  35:../../DaisyExamples/libDaisy//src/hid/audio.h ****         /** factor for adjustment before and after callback for hardware that may have extra headro
  36:../../DaisyExamples/libDaisy//src/hid/audio.h ****         float postgain;
  37:../../DaisyExamples/libDaisy//src/hid/audio.h **** 
  38:../../DaisyExamples/libDaisy//src/hid/audio.h ****         /** factor for additional one-sided compensation to audio path for hardware that may
  39:../../DaisyExamples/libDaisy//src/hid/audio.h ****          *  have unequal input/output ranges
  40:../../DaisyExamples/libDaisy//src/hid/audio.h ****          */
  41:../../DaisyExamples/libDaisy//src/hid/audio.h ****         float output_compensation;
  42:../../DaisyExamples/libDaisy//src/hid/audio.h **** 
  43:../../DaisyExamples/libDaisy//src/hid/audio.h ****         /** Sets default values for config struct */
  44:../../DaisyExamples/libDaisy//src/hid/audio.h ****         Config()
  45:../../DaisyExamples/libDaisy//src/hid/audio.h ****         : blocksize(48),
  46:../../DaisyExamples/libDaisy//src/hid/audio.h ****           samplerate(SaiHandle::Config::SampleRate::SAI_48KHZ),
  47:../../DaisyExamples/libDaisy//src/hid/audio.h ****           postgain(1.f),
  48:../../DaisyExamples/libDaisy//src/hid/audio.h ****           output_compensation(1.f)
  49:../../DaisyExamples/libDaisy//src/hid/audio.h ****         {
  50:../../DaisyExamples/libDaisy//src/hid/audio.h ****         }
  51:../../DaisyExamples/libDaisy//src/hid/audio.h ****     };
  52:../../DaisyExamples/libDaisy//src/hid/audio.h **** 
ARM GAS  /tmp/cckBeWOW.s 			page 7


  53:../../DaisyExamples/libDaisy//src/hid/audio.h ****     enum class Result
  54:../../DaisyExamples/libDaisy//src/hid/audio.h ****     {
  55:../../DaisyExamples/libDaisy//src/hid/audio.h ****         OK,
  56:../../DaisyExamples/libDaisy//src/hid/audio.h ****         ERR,
  57:../../DaisyExamples/libDaisy//src/hid/audio.h ****     };
  58:../../DaisyExamples/libDaisy//src/hid/audio.h **** 
  59:../../DaisyExamples/libDaisy//src/hid/audio.h ****     /** Non-Interleaving input buffer
  60:../../DaisyExamples/libDaisy//src/hid/audio.h ****      * Buffer arranged by float[chn][sample] 
  61:../../DaisyExamples/libDaisy//src/hid/audio.h ****      * const so that the user can't modify the input
  62:../../DaisyExamples/libDaisy//src/hid/audio.h ****      */
  63:../../DaisyExamples/libDaisy//src/hid/audio.h ****     typedef const float* const* InputBuffer;
  64:../../DaisyExamples/libDaisy//src/hid/audio.h **** 
  65:../../DaisyExamples/libDaisy//src/hid/audio.h ****     /** Non-Interleaving output buffer
  66:../../DaisyExamples/libDaisy//src/hid/audio.h ****      * Arranged by float[chn][sample] 
  67:../../DaisyExamples/libDaisy//src/hid/audio.h ****      */
  68:../../DaisyExamples/libDaisy//src/hid/audio.h ****     typedef float** OutputBuffer;
  69:../../DaisyExamples/libDaisy//src/hid/audio.h **** 
  70:../../DaisyExamples/libDaisy//src/hid/audio.h ****     /** Type for a Non-Interleaving audio callback 
  71:../../DaisyExamples/libDaisy//src/hid/audio.h ****      * Non-Interleaving audio callbacks in daisy will be of this type
  72:../../DaisyExamples/libDaisy//src/hid/audio.h ****      */
  73:../../DaisyExamples/libDaisy//src/hid/audio.h ****     typedef void (*AudioCallback)(InputBuffer  in,
  74:../../DaisyExamples/libDaisy//src/hid/audio.h ****                                   OutputBuffer out,
  75:../../DaisyExamples/libDaisy//src/hid/audio.h ****                                   size_t       size);
  76:../../DaisyExamples/libDaisy//src/hid/audio.h **** 
  77:../../DaisyExamples/libDaisy//src/hid/audio.h ****     /** Interleaving Input buffer
  78:../../DaisyExamples/libDaisy//src/hid/audio.h ****      ** audio is prepared as { L0, R0, L1, R1, . . . LN, RN }]
  79:../../DaisyExamples/libDaisy//src/hid/audio.h ****      ** this is const, as the user shouldn't modify it
  80:../../DaisyExamples/libDaisy//src/hid/audio.h ****     */
  81:../../DaisyExamples/libDaisy//src/hid/audio.h ****     typedef const float* InterleavingInputBuffer;
  82:../../DaisyExamples/libDaisy//src/hid/audio.h **** 
  83:../../DaisyExamples/libDaisy//src/hid/audio.h ****     /** Interleaving Output buffer 
  84:../../DaisyExamples/libDaisy//src/hid/audio.h ****      ** audio is prepared as { L0, R0, L1, R1, . . . LN, RN }
  85:../../DaisyExamples/libDaisy//src/hid/audio.h ****     */
  86:../../DaisyExamples/libDaisy//src/hid/audio.h ****     typedef float* InterleavingOutputBuffer;
  87:../../DaisyExamples/libDaisy//src/hid/audio.h **** 
  88:../../DaisyExamples/libDaisy//src/hid/audio.h ****     /** Interleaving Audio Callback 
  89:../../DaisyExamples/libDaisy//src/hid/audio.h ****      * Interleaving audio callbacks in daisy must be of this type
  90:../../DaisyExamples/libDaisy//src/hid/audio.h ****      */
  91:../../DaisyExamples/libDaisy//src/hid/audio.h ****     typedef void (*InterleavingAudioCallback)(InterleavingInputBuffer  in,
  92:../../DaisyExamples/libDaisy//src/hid/audio.h ****                                               InterleavingOutputBuffer out,
  93:../../DaisyExamples/libDaisy//src/hid/audio.h ****                                               size_t                   size);
  94:../../DaisyExamples/libDaisy//src/hid/audio.h **** 
  95:../../DaisyExamples/libDaisy//src/hid/audio.h ****     AudioHandle() : pimpl_(nullptr) {}
  96:../../DaisyExamples/libDaisy//src/hid/audio.h ****     ~AudioHandle() {}
  57              		.loc 6 96 5 is_stmt 1 view .LVU7
  58              		.loc 6 96 5 is_stmt 0 view .LVU8
  59              	.LBE68:
  60              		.loc 2 22 19 view .LVU9
  61 0000 7047     		bx	lr
  62              		.cfi_endproc
  63              	.LFE2344:
  65              		.weak	_ZN5daisy9DaisySeedD1Ev
  66              		.thumb_set _ZN5daisy9DaisySeedD1Ev,_ZN5daisy9DaisySeedD2Ev
  67 0002 00BF     		.section	.text._Z11store_valuet,"ax",%progbits
  68              		.align	1
  69              		.p2align 2,,3
  70              		.global	_Z11store_valuet
ARM GAS  /tmp/cckBeWOW.s 			page 8


  71              		.syntax unified
  72              		.thumb
  73              		.thumb_func
  75              	_Z11store_valuet:
  76              	.LVL1:
  77              	.LFB4788:
   1:adc_and_log.cpp **** #include <pstl/glue_numeric_defs.h>
   2:adc_and_log.cpp **** 
   3:adc_and_log.cpp **** #include "daisy_seed.h"
   4:adc_and_log.cpp **** #include "daisysp.h"
   5:adc_and_log.cpp **** #include <string>
   6:adc_and_log.cpp **** 
   7:adc_and_log.cpp **** #define NUMBER_OF_VALUES 1024
   8:adc_and_log.cpp **** #define TEST_MEMORY_SIZE (NUMBER_OF_VALUES * 16)
   9:adc_and_log.cpp **** 
  10:adc_and_log.cpp **** using namespace daisy;
  11:adc_and_log.cpp **** using namespace daisysp;
  12:adc_and_log.cpp **** 
  13:adc_and_log.cpp **** static DaisySeed hw;
  14:adc_and_log.cpp **** static int value_count = 0;
  15:adc_and_log.cpp **** 
  16:adc_and_log.cpp **** 
  17:adc_and_log.cpp **** void store_value(uint16_t value){
  78              		.loc 1 17 33 is_stmt 1 view -0
  79              		.cfi_startproc
  80              		@ args = 0, pretend = 0, frame = 0
  81              		@ frame_needed = 0, uses_anonymous_args = 0
  82              		@ link register save eliminated.
  18:adc_and_log.cpp **** 	int32_t *ram = (int32_t *)0xC0000000;
  83              		.loc 1 18 2 view .LVU11
  19:adc_and_log.cpp **** 	unsigned char const *p = reinterpret_cast<unsigned char const *>(&value);
  84              		.loc 1 19 2 view .LVU12
  20:adc_and_log.cpp **** 	memcpy((sizeof(uint16_t) * value_count) + ram, p, sizeof(uint16_t));
  85              		.loc 1 20 2 view .LVU13
  86              		.loc 1 20 29 is_stmt 0 view .LVU14
  87 0000 0449     		ldr	r1, .L4
  88 0002 0B68     		ldr	r3, [r1]
  89              		.loc 1 20 8 view .LVU15
  90 0004 DA00     		lsls	r2, r3, #3
  21:adc_and_log.cpp **** 	value_count++;
  91              		.loc 1 21 13 view .LVU16
  92 0006 0133     		adds	r3, r3, #1
  20:adc_and_log.cpp **** 	memcpy((sizeof(uint16_t) * value_count) + ram, p, sizeof(uint16_t));
  93              		.loc 1 20 8 view .LVU17
  94 0008 02F14042 		add	r2, r2, #-1073741824
  95              		.loc 1 21 13 view .LVU18
  96 000c 0B60     		str	r3, [r1]
  20:adc_and_log.cpp **** 	memcpy((sizeof(uint16_t) * value_count) + ram, p, sizeof(uint16_t));
  97              		.loc 1 20 8 view .LVU19
  98 000e 1080     		strh	r0, [r2]	@ movhi
  99              		.loc 1 21 2 is_stmt 1 view .LVU20
  22:adc_and_log.cpp **** }
 100              		.loc 1 22 1 is_stmt 0 view .LVU21
 101 0010 7047     		bx	lr
 102              	.L5:
 103 0012 00BF     		.align	2
 104              	.L4:
ARM GAS  /tmp/cckBeWOW.s 			page 9


 105 0014 00000000 		.word	_ZL11value_count
 106              		.cfi_endproc
 107              	.LFE4788:
 109              		.section	.rodata._Z16get_avg_from_ramv.str1.4,"aMS",%progbits,1
 110              		.align	2
 111              	.LC0:
 112 0000 61626320 		.ascii	"abc %d\000"
 112      256400
 113              		.section	.text._Z16get_avg_from_ramv,"ax",%progbits
 114              		.align	1
 115              		.p2align 2,,3
 116              		.global	_Z16get_avg_from_ramv
 117              		.syntax unified
 118              		.thumb
 119              		.thumb_func
 121              	_Z16get_avg_from_ramv:
 122              	.LFB4789:
  23:adc_and_log.cpp **** 
  24:adc_and_log.cpp **** void get_avg_from_ram(){
 123              		.loc 1 24 24 is_stmt 1 view -0
 124              		.cfi_startproc
 125              		@ args = 0, pretend = 0, frame = 0
 126              		@ frame_needed = 0, uses_anonymous_args = 0
  25:adc_and_log.cpp **** 	int32_t *ram = (int32_t *)0xC0000000;
 127              		.loc 1 25 2 view .LVU23
 128              	.LVL2:
  26:adc_and_log.cpp **** 	uint64_t sum = 0.0;
 129              		.loc 1 26 2 view .LVU24
  27:adc_and_log.cpp **** 	for (size_t i = 0; i < NUMBER_OF_VALUES; i++)
 130              		.loc 1 27 2 view .LVU25
 131              	.LBB73:
 132              		.loc 1 27 23 discriminator 1 view .LVU26
 133              	.LBE73:
  24:adc_and_log.cpp **** 	int32_t *ram = (int32_t *)0xC0000000;
 134              		.loc 1 24 24 is_stmt 0 view .LVU27
 135 0000 38B5     		push	{r3, r4, r5, lr}
 136              		.cfi_def_cfa_offset 16
 137              		.cfi_offset 3, -16
 138              		.cfi_offset 4, -12
 139              		.cfi_offset 5, -8
 140              		.cfi_offset 14, -4
  26:adc_and_log.cpp **** 	uint64_t sum = 0.0;
 141              		.loc 1 26 11 view .LVU28
 142 0002 0024     		movs	r4, #0
  24:adc_and_log.cpp **** 	int32_t *ram = (int32_t *)0xC0000000;
 143              		.loc 1 24 24 view .LVU29
 144 0004 4FF04045 		mov	r5, #-1073741824
 145              	.LVL3:
 146              	.L7:
 147              	.LBB75:
 148              	.LBB74:
  28:adc_and_log.cpp **** 	{
  29:adc_and_log.cpp **** 		uint16_t result;
 149              		.loc 1 29 3 is_stmt 1 view .LVU30
  30:adc_and_log.cpp **** 		unsigned char const *p = (unsigned char const *)((sizeof(uint16_t) * i) + ram);
 150              		.loc 1 30 3 view .LVU31
  31:adc_and_log.cpp **** 		memcpy(&result, p, sizeof(uint16_t));
ARM GAS  /tmp/cckBeWOW.s 			page 10


 151              		.loc 1 31 3 view .LVU32
  32:adc_and_log.cpp **** 		sum += result;
 152              		.loc 1 32 3 view .LVU33
 153              		.loc 1 32 10 is_stmt 0 view .LVU34
 154 0008 35F8083B 		ldrh	r3, [r5], #8
 155              	.LVL4:
  33:adc_and_log.cpp **** 		System::Delay(1);
 156              		.loc 1 33 16 view .LVU35
 157 000c 0120     		movs	r0, #1
  32:adc_and_log.cpp **** 		sum += result;
 158              		.loc 1 32 7 view .LVU36
 159 000e 1C19     		adds	r4, r3, r4
 160              		.loc 1 33 3 is_stmt 1 view .LVU37
 161              		.loc 1 33 16 is_stmt 0 view .LVU38
 162 0010 FFF7FEFF 		bl	_ZN5daisy6System5DelayEm
 163              	.LVL5:
 164              		.loc 1 33 16 view .LVU39
 165              	.LBE74:
  27:adc_and_log.cpp **** 	{
 166              		.loc 1 27 2 is_stmt 1 discriminator 3 view .LVU40
  27:adc_and_log.cpp **** 	{
 167              		.loc 1 27 23 discriminator 1 view .LVU41
 168 0014 064B     		ldr	r3, .L10
 169 0016 9D42     		cmp	r5, r3
 170 0018 F6D1     		bne	.L7
 171              	.LBE75:
  34:adc_and_log.cpp **** 	}
  35:adc_and_log.cpp **** 	uint16_t avg = sum / NUMBER_OF_VALUES;
 172              		.loc 1 35 2 view .LVU42
 173              	.LVL6:
  36:adc_and_log.cpp **** 	System::Delay(1);
 174              		.loc 1 36 2 view .LVU43
 175              		.loc 1 36 15 is_stmt 0 view .LVU44
 176 001a 0120     		movs	r0, #1
 177 001c FFF7FEFF 		bl	_ZN5daisy6System5DelayEm
 178              	.LVL7:
  37:adc_and_log.cpp **** 	hw.PrintLine("abc %d", avg);
 179              		.loc 1 37 2 is_stmt 1 view .LVU45
 180              	.LBB76:
 181              	.LBI76:
  23:../../DaisyExamples/libDaisy//src/daisy_seed.h **** 
  24:../../DaisyExamples/libDaisy//src/daisy_seed.h ****     /** This function used to provide a pre-initialization configuraiton 
  25:../../DaisyExamples/libDaisy//src/daisy_seed.h ****      *  it has since been deprecated, and does nothing.
  26:../../DaisyExamples/libDaisy//src/daisy_seed.h ****      */
  27:../../DaisyExamples/libDaisy//src/daisy_seed.h ****     void Configure();
  28:../../DaisyExamples/libDaisy//src/daisy_seed.h **** 
  29:../../DaisyExamples/libDaisy//src/daisy_seed.h ****     /** 
  30:../../DaisyExamples/libDaisy//src/daisy_seed.h ****     Initializes the Daisy Seed and the following peripherals:
  31:../../DaisyExamples/libDaisy//src/daisy_seed.h ****     SDRAM, QSPI, 24-bit 48kHz Audio via AK4556, Internal USB,
  32:../../DaisyExamples/libDaisy//src/daisy_seed.h ****     as well as the built-in LED and Testpoint.
  33:../../DaisyExamples/libDaisy//src/daisy_seed.h **** 
  34:../../DaisyExamples/libDaisy//src/daisy_seed.h ****     ADCs, DACs, and other special peripherals (such as I2C, SPI, etc.)
  35:../../DaisyExamples/libDaisy//src/daisy_seed.h ****     can be initialized using their specific initializers within libdaisy
  36:../../DaisyExamples/libDaisy//src/daisy_seed.h ****     for a specific application.
  37:../../DaisyExamples/libDaisy//src/daisy_seed.h ****     */
  38:../../DaisyExamples/libDaisy//src/daisy_seed.h ****     void Init(bool boost = false);
  39:../../DaisyExamples/libDaisy//src/daisy_seed.h **** 
ARM GAS  /tmp/cckBeWOW.s 			page 11


  40:../../DaisyExamples/libDaisy//src/daisy_seed.h ****     /** 
  41:../../DaisyExamples/libDaisy//src/daisy_seed.h ****     Deinitializes all peripherals automatically handled by `Init`.
  42:../../DaisyExamples/libDaisy//src/daisy_seed.h ****     */
  43:../../DaisyExamples/libDaisy//src/daisy_seed.h ****     void DeInit();
  44:../../DaisyExamples/libDaisy//src/daisy_seed.h **** 
  45:../../DaisyExamples/libDaisy//src/daisy_seed.h ****     /** 
  46:../../DaisyExamples/libDaisy//src/daisy_seed.h ****     Wait some ms before going on.
  47:../../DaisyExamples/libDaisy//src/daisy_seed.h ****     \param del Delay time in ms.
  48:../../DaisyExamples/libDaisy//src/daisy_seed.h ****     */
  49:../../DaisyExamples/libDaisy//src/daisy_seed.h ****     void DelayMs(size_t del);
  50:../../DaisyExamples/libDaisy//src/daisy_seed.h **** 
  51:../../DaisyExamples/libDaisy//src/daisy_seed.h ****     /** 
  52:../../DaisyExamples/libDaisy//src/daisy_seed.h ****     Returns the gpio_pin corresponding to the index 0-31.
  53:../../DaisyExamples/libDaisy//src/daisy_seed.h ****     For the given GPIO on the Daisy Seed (labeled 1-32 in docs).
  54:../../DaisyExamples/libDaisy//src/daisy_seed.h ****     */
  55:../../DaisyExamples/libDaisy//src/daisy_seed.h ****     static dsy_gpio_pin GetPin(uint8_t pin_idx);
  56:../../DaisyExamples/libDaisy//src/daisy_seed.h **** 
  57:../../DaisyExamples/libDaisy//src/daisy_seed.h ****     /** Begins the audio for the seeds builtin audio.
  58:../../DaisyExamples/libDaisy//src/daisy_seed.h ****     the specified callback will get called whenever
  59:../../DaisyExamples/libDaisy//src/daisy_seed.h ****     new data is ready to be prepared.
  60:../../DaisyExamples/libDaisy//src/daisy_seed.h ****     */
  61:../../DaisyExamples/libDaisy//src/daisy_seed.h ****     void StartAudio(AudioHandle::InterleavingAudioCallback cb);
  62:../../DaisyExamples/libDaisy//src/daisy_seed.h **** 
  63:../../DaisyExamples/libDaisy//src/daisy_seed.h ****     /** Begins the audio for the seeds builtin audio.
  64:../../DaisyExamples/libDaisy//src/daisy_seed.h ****     the specified callback will get called whenever
  65:../../DaisyExamples/libDaisy//src/daisy_seed.h ****     new data is ready to be prepared.
  66:../../DaisyExamples/libDaisy//src/daisy_seed.h ****     This will use the newer non-interleaved callback.
  67:../../DaisyExamples/libDaisy//src/daisy_seed.h ****     */
  68:../../DaisyExamples/libDaisy//src/daisy_seed.h ****     void StartAudio(AudioHandle::AudioCallback cb);
  69:../../DaisyExamples/libDaisy//src/daisy_seed.h **** 
  70:../../DaisyExamples/libDaisy//src/daisy_seed.h ****     /** Changes to a new interleaved callback
  71:../../DaisyExamples/libDaisy//src/daisy_seed.h ****      */
  72:../../DaisyExamples/libDaisy//src/daisy_seed.h ****     void ChangeAudioCallback(AudioHandle::InterleavingAudioCallback cb);
  73:../../DaisyExamples/libDaisy//src/daisy_seed.h **** 
  74:../../DaisyExamples/libDaisy//src/daisy_seed.h ****     /** Changes to a new multichannel callback
  75:../../DaisyExamples/libDaisy//src/daisy_seed.h ****      */
  76:../../DaisyExamples/libDaisy//src/daisy_seed.h ****     void ChangeAudioCallback(AudioHandle::AudioCallback cb);
  77:../../DaisyExamples/libDaisy//src/daisy_seed.h **** 
  78:../../DaisyExamples/libDaisy//src/daisy_seed.h ****     /** Stops the audio if it is running. */
  79:../../DaisyExamples/libDaisy//src/daisy_seed.h ****     void StopAudio();
  80:../../DaisyExamples/libDaisy//src/daisy_seed.h **** 
  81:../../DaisyExamples/libDaisy//src/daisy_seed.h ****     /** Updates the Audio Sample Rate, and reinitializes.
  82:../../DaisyExamples/libDaisy//src/daisy_seed.h ****      ** Audio must be stopped for this to work.
  83:../../DaisyExamples/libDaisy//src/daisy_seed.h ****      */
  84:../../DaisyExamples/libDaisy//src/daisy_seed.h ****     void SetAudioSampleRate(SaiHandle::Config::SampleRate samplerate);
  85:../../DaisyExamples/libDaisy//src/daisy_seed.h **** 
  86:../../DaisyExamples/libDaisy//src/daisy_seed.h ****     /** Returns the audio sample rate in Hz as a floating point number.
  87:../../DaisyExamples/libDaisy//src/daisy_seed.h ****      */
  88:../../DaisyExamples/libDaisy//src/daisy_seed.h ****     float AudioSampleRate();
  89:../../DaisyExamples/libDaisy//src/daisy_seed.h **** 
  90:../../DaisyExamples/libDaisy//src/daisy_seed.h ****     /** Sets the number of samples processed per channel by the audio callback.
  91:../../DaisyExamples/libDaisy//src/daisy_seed.h ****      */
  92:../../DaisyExamples/libDaisy//src/daisy_seed.h ****     void SetAudioBlockSize(size_t blocksize);
  93:../../DaisyExamples/libDaisy//src/daisy_seed.h **** 
  94:../../DaisyExamples/libDaisy//src/daisy_seed.h ****     /** Returns the number of samples per channel in a block of audio. */
  95:../../DaisyExamples/libDaisy//src/daisy_seed.h ****     size_t AudioBlockSize();
  96:../../DaisyExamples/libDaisy//src/daisy_seed.h **** 
ARM GAS  /tmp/cckBeWOW.s 			page 12


  97:../../DaisyExamples/libDaisy//src/daisy_seed.h ****     /** Returns the rate in Hz that the Audio callback is called */
  98:../../DaisyExamples/libDaisy//src/daisy_seed.h ****     float AudioCallbackRate() const;
  99:../../DaisyExamples/libDaisy//src/daisy_seed.h **** 
 100:../../DaisyExamples/libDaisy//src/daisy_seed.h ****     /** Sets the state of the built in LED
 101:../../DaisyExamples/libDaisy//src/daisy_seed.h ****      */
 102:../../DaisyExamples/libDaisy//src/daisy_seed.h ****     void SetLed(bool state);
 103:../../DaisyExamples/libDaisy//src/daisy_seed.h **** 
 104:../../DaisyExamples/libDaisy//src/daisy_seed.h ****     /** Sets the state of the test point near pin 10
 105:../../DaisyExamples/libDaisy//src/daisy_seed.h ****      */
 106:../../DaisyExamples/libDaisy//src/daisy_seed.h ****     void SetTestPoint(bool state);
 107:../../DaisyExamples/libDaisy//src/daisy_seed.h **** 
 108:../../DaisyExamples/libDaisy//src/daisy_seed.h ****     /** Print formatted debug log message
 109:../../DaisyExamples/libDaisy//src/daisy_seed.h ****      */
 110:../../DaisyExamples/libDaisy//src/daisy_seed.h ****     template <typename... VA>
 111:../../DaisyExamples/libDaisy//src/daisy_seed.h ****     static void Print(const char* format, VA... va)
 112:../../DaisyExamples/libDaisy//src/daisy_seed.h ****     {
 113:../../DaisyExamples/libDaisy//src/daisy_seed.h ****         Log::Print(format, va...);
 114:../../DaisyExamples/libDaisy//src/daisy_seed.h ****     }
 115:../../DaisyExamples/libDaisy//src/daisy_seed.h **** 
 116:../../DaisyExamples/libDaisy//src/daisy_seed.h ****     /** Print formatted debug log message with automatic line termination
 117:../../DaisyExamples/libDaisy//src/daisy_seed.h ****     */
 118:../../DaisyExamples/libDaisy//src/daisy_seed.h ****     template <typename... VA>
 119:../../DaisyExamples/libDaisy//src/daisy_seed.h ****     static void PrintLine(const char* format, VA... va)
 182              		.loc 2 119 17 view .LVU46
 183              	.LBB77:
 120:../../DaisyExamples/libDaisy//src/daisy_seed.h ****     {
 121:../../DaisyExamples/libDaisy//src/daisy_seed.h ****         Log::PrintLine(format, va...);
 184              		.loc 2 121 23 is_stmt 0 view .LVU47
 185 0020 C4F38F21 		ubfx	r1, r4, #10, #16
 186 0024 0348     		ldr	r0, .L10+4
 187              	.LBE77:
 188              	.LBE76:
  38:adc_and_log.cpp **** }
 189              		.loc 1 38 1 view .LVU48
 190 0026 BDE83840 		pop	{r3, r4, r5, lr}
 191              		.cfi_restore 14
 192              		.cfi_restore 5
 193              		.cfi_restore 4
 194              		.cfi_restore 3
 195              		.cfi_def_cfa_offset 0
 196              	.LVL8:
 197              	.LBB79:
 198              	.LBB78:
 199              		.loc 2 121 23 view .LVU49
 200 002a FFF7FEBF 		b	_ZN5daisy6LoggerILNS_17LoggerDestinationE1EE9PrintLineEPKcz
 201              	.LVL9:
 202              	.L11:
 203 002e 00BF     		.align	2
 204              	.L10:
 205 0030 002000C0 		.word	-1073733632
 206 0034 00000000 		.word	.LC0
 207              	.LBE78:
 208              	.LBE79:
 209              		.cfi_endproc
 210              	.LFE4789:
 212              		.section	.text._Z19collect_temperaturev,"ax",%progbits
 213              		.align	1
ARM GAS  /tmp/cckBeWOW.s 			page 13


 214              		.p2align 2,,3
 215              		.global	_Z19collect_temperaturev
 216              		.syntax unified
 217              		.thumb
 218              		.thumb_func
 220              	_Z19collect_temperaturev:
 221              	.LFB4790:
  39:adc_and_log.cpp **** 
  40:adc_and_log.cpp **** 
  41:adc_and_log.cpp **** void collect_temperature() {
 222              		.loc 1 41 28 is_stmt 1 view -0
 223              		.cfi_startproc
 224              		@ args = 0, pretend = 0, frame = 0
 225              		@ frame_needed = 0, uses_anonymous_args = 0
  42:adc_and_log.cpp **** 		for (size_t i = 0; i < NUMBER_OF_VALUES; i++)
 226              		.loc 1 42 3 view .LVU51
 227              	.LVL10:
 228              	.LBB83:
 229              		.loc 1 42 24 discriminator 1 view .LVU52
 230              	.LBE83:
  41:adc_and_log.cpp **** 		for (size_t i = 0; i < NUMBER_OF_VALUES; i++)
 231              		.loc 1 41 28 is_stmt 0 view .LVU53
 232 0000 38B5     		push	{r3, r4, r5, lr}
 233              		.cfi_def_cfa_offset 16
 234              		.cfi_offset 3, -16
 235              		.cfi_offset 4, -12
 236              		.cfi_offset 5, -8
 237              		.cfi_offset 14, -4
  41:adc_and_log.cpp **** 		for (size_t i = 0; i < NUMBER_OF_VALUES; i++)
 238              		.loc 1 41 28 view .LVU54
 239 0002 4FF48064 		mov	r4, #1024
 240 0006 094D     		ldr	r5, .L16
 241              	.LVL11:
 242              	.L13:
 243              	.LBB90:
  43:adc_and_log.cpp **** 		{
  44:adc_and_log.cpp **** 			store_value(hw.adc.Get(0));
 244              		.loc 1 44 4 is_stmt 1 view .LVU55
 245              		.loc 1 44 15 is_stmt 0 view .LVU56
 246 0008 0021     		movs	r1, #0
 247 000a 0948     		ldr	r0, .L16+4
 248 000c FFF7FEFF 		bl	_ZNK5daisy9AdcHandle3GetEh
 249              	.LVL12:
 250              	.LBB84:
 251              	.LBB85:
  20:adc_and_log.cpp **** 	value_count++;
 252              		.loc 1 20 29 view .LVU57
 253 0010 2B68     		ldr	r3, [r5]
 254              	.LBE85:
 255              	.LBE84:
 256              		.loc 1 44 15 view .LVU58
 257 0012 0146     		mov	r1, r0
 258              	.LVL13:
 259              	.LBB88:
 260              	.LBI84:
  17:adc_and_log.cpp **** 	int32_t *ram = (int32_t *)0xC0000000;
 261              		.loc 1 17 6 is_stmt 1 view .LVU59
ARM GAS  /tmp/cckBeWOW.s 			page 14


 262              	.LBB86:
  18:adc_and_log.cpp **** 	unsigned char const *p = reinterpret_cast<unsigned char const *>(&value);
 263              		.loc 1 18 2 view .LVU60
  19:adc_and_log.cpp **** 	memcpy((sizeof(uint16_t) * value_count) + ram, p, sizeof(uint16_t));
 264              		.loc 1 19 2 view .LVU61
  20:adc_and_log.cpp **** 	value_count++;
 265              		.loc 1 20 2 view .LVU62
 266              	.LBE86:
 267              	.LBE88:
  45:adc_and_log.cpp **** 			System::Delay(1);
 268              		.loc 1 45 17 is_stmt 0 view .LVU63
 269 0014 0120     		movs	r0, #1
 270              	.LBB89:
 271              	.LBB87:
  20:adc_and_log.cpp **** 	value_count++;
 272              		.loc 1 20 8 view .LVU64
 273 0016 DA00     		lsls	r2, r3, #3
  21:adc_and_log.cpp **** }
 274              		.loc 1 21 13 view .LVU65
 275 0018 0344     		add	r3, r3, r0
  20:adc_and_log.cpp **** 	value_count++;
 276              		.loc 1 20 8 view .LVU66
 277 001a 02F14042 		add	r2, r2, #-1073741824
  21:adc_and_log.cpp **** }
 278              		.loc 1 21 13 view .LVU67
 279 001e 2B60     		str	r3, [r5]
  20:adc_and_log.cpp **** 	value_count++;
 280              		.loc 1 20 8 view .LVU68
 281 0020 1180     		strh	r1, [r2]	@ movhi
  21:adc_and_log.cpp **** }
 282              		.loc 1 21 2 is_stmt 1 view .LVU69
 283              	.LVL14:
  21:adc_and_log.cpp **** }
 284              		.loc 1 21 2 is_stmt 0 view .LVU70
 285              	.LBE87:
 286              	.LBE89:
 287              		.loc 1 45 4 is_stmt 1 view .LVU71
 288              		.loc 1 45 17 is_stmt 0 view .LVU72
 289 0022 FFF7FEFF 		bl	_ZN5daisy6System5DelayEm
 290              	.LVL15:
  42:adc_and_log.cpp **** 		{
 291              		.loc 1 42 3 is_stmt 1 discriminator 3 view .LVU73
  42:adc_and_log.cpp **** 		{
 292              		.loc 1 42 24 discriminator 1 view .LVU74
 293 0026 013C     		subs	r4, r4, #1
 294 0028 EED1     		bne	.L13
 295              	.LBE90:
  46:adc_and_log.cpp **** 		}
  47:adc_and_log.cpp **** }
 296              		.loc 1 47 1 is_stmt 0 view .LVU75
 297 002a 38BD     		pop	{r3, r4, r5, pc}
 298              	.L17:
 299              		.align	2
 300              	.L16:
 301 002c 00000000 		.word	_ZL11value_count
 302 0030 18000000 		.word	_ZL2hw+24
 303              		.cfi_endproc
ARM GAS  /tmp/cckBeWOW.s 			page 15


 304              	.LFE4790:
 306              		.section	.rodata.main.str1.4,"aMS",%progbits,1
 307              		.align	2
 308              	.LC1:
 309 0000 54686973 		.ascii	"This may be used anywhere too\000"
 309      206D6179 
 309      20626520 
 309      75736564 
 309      20616E79 
 310 001e 0000     		.align	2
 311              	.LC2:
 312 0020 57656C63 		.ascii	"Welcom, lets start\000"
 312      6F6D2C20 
 312      6C657473 
 312      20737461 
 312      727400
 313 0033 00       		.align	2
 314              	.LC3:
 315 0034 41646320 		.ascii	"Adc Started, entering Loop\000"
 315      53746172 
 315      7465642C 
 315      20656E74 
 315      6572696E 
 316 004f 00       		.align	2
 317              	.LC4:
 318 0050 41444320 		.ascii	"ADC 1: %d\000"
 318      313A2025 
 318      6400
 319              		.section	.text.startup.main,"ax",%progbits
 320              		.align	1
 321              		.p2align 2,,3
 322              		.global	main
 323              		.syntax unified
 324              		.thumb
 325              		.thumb_func
 327              	main:
 328              	.LFB4791:
  48:adc_and_log.cpp **** 
  49:adc_and_log.cpp **** 
  50:adc_and_log.cpp **** int main(void)
  51:adc_and_log.cpp **** {
 329              		.loc 1 51 1 is_stmt 1 view -0
 330              		.cfi_startproc
 331              		@ Volatile: function does not return.
 332              		@ args = 0, pretend = 0, frame = 56
 333              		@ frame_needed = 0, uses_anonymous_args = 0
  52:adc_and_log.cpp **** 	hw.PrintLine("This may be used anywhere too");
 334              		.loc 1 52 2 view .LVU77
 335              	.LVL16:
 336              	.LBB114:
 337              	.LBI114:
 119:../../DaisyExamples/libDaisy//src/daisy_seed.h ****     {
 338              		.loc 2 119 17 view .LVU78
 339              	.LBE114:
  51:adc_and_log.cpp **** 	hw.PrintLine("This may be used anywhere too");
 340              		.loc 1 51 1 is_stmt 0 view .LVU79
 341 0000 00B5     		push	{lr}
ARM GAS  /tmp/cckBeWOW.s 			page 16


 342              		.cfi_def_cfa_offset 4
 343              		.cfi_offset 14, -4
 344              	.LBB117:
 345              	.LBB115:
 346              		.loc 2 121 23 view .LVU80
 347 0002 3248     		ldr	r0, .L25
 348              	.LBE115:
 349              	.LBE117:
  51:adc_and_log.cpp **** 	hw.PrintLine("This may be used anywhere too");
 350              		.loc 1 51 1 view .LVU81
 351 0004 8FB0     		sub	sp, sp, #60
 352              		.cfi_def_cfa_offset 64
 353              	.LBB118:
 354              	.LBB116:
 355              		.loc 2 121 23 view .LVU82
 356 0006 FFF7FEFF 		bl	_ZN5daisy6LoggerILNS_17LoggerDestinationE1EE9PrintLineEPKcz
 357              	.LVL17:
 358              		.loc 2 121 23 view .LVU83
 359              	.LBE116:
 360              	.LBE118:
  53:adc_and_log.cpp **** 	hw.Configure();
 361              		.loc 1 53 2 is_stmt 1 view .LVU84
 362              		.loc 1 53 14 is_stmt 0 view .LVU85
 363 000a 3148     		ldr	r0, .L25+4
 364 000c FFF7FEFF 		bl	_ZN5daisy9DaisySeed9ConfigureEv
 365              	.LVL18:
  54:adc_and_log.cpp **** 	hw.Init();
 366              		.loc 1 54 2 is_stmt 1 view .LVU86
 367              		.loc 1 54 9 is_stmt 0 view .LVU87
 368 0010 0021     		movs	r1, #0
 369 0012 2F48     		ldr	r0, .L25+4
 370 0014 FFF7FEFF 		bl	_ZN5daisy9DaisySeed4InitEb
 371              	.LVL19:
  55:adc_and_log.cpp ****     // hw.PrintLine("Verify CRT floating point format: %.3f.", 123.0f);
  56:adc_and_log.cpp **** 	hw.StartLog();
 372              		.loc 1 56 2 is_stmt 1 view .LVU88
 373              	.LBB119:
 374              	.LBI119:
 122:../../DaisyExamples/libDaisy//src/daisy_seed.h ****     }
 123:../../DaisyExamples/libDaisy//src/daisy_seed.h **** 
 124:../../DaisyExamples/libDaisy//src/daisy_seed.h ****     /** Start the logging session. Optionally wait for terminal connection before proceeding.
 125:../../DaisyExamples/libDaisy//src/daisy_seed.h ****     */
 126:../../DaisyExamples/libDaisy//src/daisy_seed.h ****     static void StartLog(bool wait_for_pc = false)
 375              		.loc 2 126 17 view .LVU89
 376              	.LBB120:
 127:../../DaisyExamples/libDaisy//src/daisy_seed.h ****     {
 128:../../DaisyExamples/libDaisy//src/daisy_seed.h ****         Log::StartLog(wait_for_pc);
 377              		.loc 2 128 9 view .LVU90
 378              		.loc 2 128 22 is_stmt 0 view .LVU91
 379 0018 0020     		movs	r0, #0
 380 001a FFF7FEFF 		bl	_ZN5daisy6LoggerILNS_17LoggerDestinationE1EE8StartLogEb
 381              	.LVL20:
 382              		.loc 2 128 22 view .LVU92
 383              	.LBE120:
 384              	.LBE119:
  57:adc_and_log.cpp **** 	hw.PrintLine("Welcom, lets start");
 385              		.loc 1 57 2 is_stmt 1 view .LVU93
ARM GAS  /tmp/cckBeWOW.s 			page 17


 386              	.LBB121:
 387              	.LBI121:
 119:../../DaisyExamples/libDaisy//src/daisy_seed.h ****     {
 388              		.loc 2 119 17 view .LVU94
 389              	.LBB122:
 121:../../DaisyExamples/libDaisy//src/daisy_seed.h ****     }
 390              		.loc 2 121 23 is_stmt 0 view .LVU95
 391 001e 2D48     		ldr	r0, .L25+8
 392 0020 FFF7FEFF 		bl	_ZN5daisy6LoggerILNS_17LoggerDestinationE1EE9PrintLineEPKcz
 393              	.LVL21:
 121:../../DaisyExamples/libDaisy//src/daisy_seed.h ****     }
 394              		.loc 2 121 23 view .LVU96
 395              	.LBE122:
 396              	.LBE121:
  58:adc_and_log.cpp **** 	Led led1;
 397              		.loc 1 58 2 is_stmt 1 view .LVU97
 398              	.LBB123:
 399              	.LBI123:
 400              		.file 7 "../../DaisyExamples/libDaisy//src/hid/led.h"
   1:../../DaisyExamples/libDaisy//src/hid/led.h **** 
   2:../../DaisyExamples/libDaisy//src/hid/led.h **** #pragma once
   3:../../DaisyExamples/libDaisy//src/hid/led.h **** #ifndef DSY_LED_H
   4:../../DaisyExamples/libDaisy//src/hid/led.h **** #define DSY_LED_H
   5:../../DaisyExamples/libDaisy//src/hid/led.h **** #include "daisy_core.h"
   6:../../DaisyExamples/libDaisy//src/hid/led.h **** #include "per/gpio.h"
   7:../../DaisyExamples/libDaisy//src/hid/led.h **** 
   8:../../DaisyExamples/libDaisy//src/hid/led.h **** /* TODO - Get this set up to work with the dev_leddriver stuff as well
   9:../../DaisyExamples/libDaisy//src/hid/led.h **** - Setup Hardware PWM for pins that have it
  10:../../DaisyExamples/libDaisy//src/hid/led.h **** */
  11:../../DaisyExamples/libDaisy//src/hid/led.h **** 
  12:../../DaisyExamples/libDaisy//src/hid/led.h **** namespace daisy
  13:../../DaisyExamples/libDaisy//src/hid/led.h **** {
  14:../../DaisyExamples/libDaisy//src/hid/led.h **** /**
  15:../../DaisyExamples/libDaisy//src/hid/led.h ****     @brief LED Class providing simple Software PWM ability, etc \n 
  16:../../DaisyExamples/libDaisy//src/hid/led.h ****     Eventually this will work with hardware PWM, and external LED Driver devices as well.
  17:../../DaisyExamples/libDaisy//src/hid/led.h ****     @author shensley
  18:../../DaisyExamples/libDaisy//src/hid/led.h ****     @date March 2020
  19:../../DaisyExamples/libDaisy//src/hid/led.h ****     @ingroup feedback
  20:../../DaisyExamples/libDaisy//src/hid/led.h **** */
  21:../../DaisyExamples/libDaisy//src/hid/led.h **** class Led
  22:../../DaisyExamples/libDaisy//src/hid/led.h **** {
  23:../../DaisyExamples/libDaisy//src/hid/led.h ****   public:
  24:../../DaisyExamples/libDaisy//src/hid/led.h ****     Led() {}
 401              		.loc 7 24 5 view .LVU98
 402              		.loc 7 24 5 is_stmt 0 view .LVU99
 403              	.LBE123:
  59:adc_and_log.cpp **** 	led1.Init(hw.GetPin(28), false);
 404              		.loc 1 59 2 is_stmt 1 view .LVU100
 405              		.loc 1 59 11 is_stmt 0 view .LVU101
 406 0024 1C20     		movs	r0, #28
 407 0026 FFF7FEFF 		bl	_ZN5daisy9DaisySeed6GetPinEh
 408              	.LVL22:
 409 002a ADF80000 		strh	r0, [sp]	@ movhi
 410              		.loc 1 59 11 discriminator 1 view .LVU102
 411 002e 9FED2A0A 		vldr.32	s0, .L25+12
 412 0032 0022     		movs	r2, #0
 413 0034 0099     		ldr	r1, [sp]
ARM GAS  /tmp/cckBeWOW.s 			page 18


 414 0036 07A8     		add	r0, sp, #28
 415 0038 FFF7FEFF 		bl	_ZN5daisy3Led4InitE12dsy_gpio_pinbf
 416              	.LVL23:
  60:adc_and_log.cpp **** 	AdcChannelConfig adcConfig;
 417              		.loc 1 60 2 is_stmt 1 view .LVU103
  61:adc_and_log.cpp **** 	adcConfig.InitSingle(hw.GetPin(21));
 418              		.loc 1 61 2 view .LVU104
 419              		.loc 1 61 22 is_stmt 0 view .LVU105
 420 003c 1520     		movs	r0, #21
 421 003e FFF7FEFF 		bl	_ZN5daisy9DaisySeed6GetPinEh
 422              	.LVL24:
 423 0042 ADF80400 		strh	r0, [sp, #4]	@ movhi
 424              		.loc 1 61 22 discriminator 1 view .LVU106
 425 0046 0199     		ldr	r1, [sp, #4]
 426 0048 02A8     		add	r0, sp, #8
 427 004a FFF7FEFF 		bl	_ZN5daisy16AdcChannelConfig10InitSingleE12dsy_gpio_pin
 428              	.LVL25:
  62:adc_and_log.cpp **** 
  63:adc_and_log.cpp **** 	hw.adc.Init(&adcConfig, 1);
 429              		.loc 1 63 2 is_stmt 1 view .LVU107
 430              		.loc 1 63 13 is_stmt 0 view .LVU108
 431 004e 0423     		movs	r3, #4
 432 0050 0122     		movs	r2, #1
 433 0052 02A9     		add	r1, sp, #8
 434 0054 2148     		ldr	r0, .L25+16
 435 0056 FFF7FEFF 		bl	_ZN5daisy9AdcHandle4InitEPNS_16AdcChannelConfigEjNS0_12OverSamplingE
 436              	.LVL26:
  64:adc_and_log.cpp **** 	hw.adc.Start();
 437              		.loc 1 64 2 is_stmt 1 view .LVU109
 438 005a 214D     		ldr	r5, .L25+20
 439              		.loc 1 64 14 is_stmt 0 view .LVU110
 440 005c 1F48     		ldr	r0, .L25+16
 441 005e FFF7FEFF 		bl	_ZN5daisy9AdcHandle5StartEv
 442              	.LVL27:
  65:adc_and_log.cpp **** 	hw.PrintLine("Adc Started, entering Loop");
 443              		.loc 1 65 2 is_stmt 1 view .LVU111
 444              	.LBB124:
 445              	.LBI124:
 119:../../DaisyExamples/libDaisy//src/daisy_seed.h ****     {
 446              		.loc 2 119 17 view .LVU112
 447              	.LBB125:
 121:../../DaisyExamples/libDaisy//src/daisy_seed.h ****     }
 448              		.loc 2 121 23 is_stmt 0 view .LVU113
 449 0062 2048     		ldr	r0, .L25+24
 450 0064 FFF7FEFF 		bl	_ZN5daisy6LoggerILNS_17LoggerDestinationE1EE9PrintLineEPKcz
 451              	.LVL28:
 452              	.L21:
 121:../../DaisyExamples/libDaisy//src/daisy_seed.h ****     }
 453              		.loc 2 121 23 view .LVU114
 454              	.LBE125:
 455              	.LBE124:
  66:adc_and_log.cpp **** 	while(1) {	
 456              		.loc 1 66 2 is_stmt 1 view .LVU115
  67:adc_and_log.cpp **** 		System::Delay(250);
 457              		.loc 1 67 3 view .LVU116
 458              		.loc 1 67 16 is_stmt 0 view .LVU117
 459 0068 4FF48064 		mov	r4, #1024
ARM GAS  /tmp/cckBeWOW.s 			page 19


 460 006c FA20     		movs	r0, #250
 461 006e FFF7FEFF 		bl	_ZN5daisy6System5DelayEm
 462              	.LVL29:
  68:adc_and_log.cpp **** 		collect_temperature();
 463              		.loc 1 68 3 is_stmt 1 view .LVU118
 464              	.LBB126:
 465              	.LBI126:
  41:adc_and_log.cpp **** 		for (size_t i = 0; i < NUMBER_OF_VALUES; i++)
 466              		.loc 1 41 6 view .LVU119
  42:adc_and_log.cpp **** 		{
 467              		.loc 1 42 3 view .LVU120
 468              	.LBB127:
  42:adc_and_log.cpp **** 		{
 469              		.loc 1 42 24 discriminator 1 view .LVU121
 470              	.L19:
  44:adc_and_log.cpp **** 			System::Delay(1);
 471              		.loc 1 44 4 view .LVU122
  44:adc_and_log.cpp **** 			System::Delay(1);
 472              		.loc 1 44 15 is_stmt 0 view .LVU123
 473 0072 0021     		movs	r1, #0
 474 0074 1948     		ldr	r0, .L25+16
 475 0076 FFF7FEFF 		bl	_ZNK5daisy9AdcHandle3GetEh
 476              	.LVL30:
 477              	.LBB128:
 478              	.LBB129:
  20:adc_and_log.cpp **** 	value_count++;
 479              		.loc 1 20 29 view .LVU124
 480 007a 2B68     		ldr	r3, [r5]
 481              	.LBE129:
 482              	.LBE128:
  44:adc_and_log.cpp **** 			System::Delay(1);
 483              		.loc 1 44 15 view .LVU125
 484 007c 0146     		mov	r1, r0
 485              	.LVL31:
 486              	.LBB132:
 487              	.LBI128:
  17:adc_and_log.cpp **** 	int32_t *ram = (int32_t *)0xC0000000;
 488              		.loc 1 17 6 is_stmt 1 view .LVU126
 489              	.LBB130:
  18:adc_and_log.cpp **** 	unsigned char const *p = reinterpret_cast<unsigned char const *>(&value);
 490              		.loc 1 18 2 view .LVU127
  19:adc_and_log.cpp **** 	memcpy((sizeof(uint16_t) * value_count) + ram, p, sizeof(uint16_t));
 491              		.loc 1 19 2 view .LVU128
  20:adc_and_log.cpp **** 	value_count++;
 492              		.loc 1 20 2 view .LVU129
 493              	.LBE130:
 494              	.LBE132:
  45:adc_and_log.cpp **** 		}
 495              		.loc 1 45 17 is_stmt 0 view .LVU130
 496 007e 0120     		movs	r0, #1
 497              	.LBB133:
 498              	.LBB131:
  20:adc_and_log.cpp **** 	value_count++;
 499              		.loc 1 20 8 view .LVU131
 500 0080 DA00     		lsls	r2, r3, #3
  21:adc_and_log.cpp **** }
 501              		.loc 1 21 13 view .LVU132
ARM GAS  /tmp/cckBeWOW.s 			page 20


 502 0082 0344     		add	r3, r3, r0
  20:adc_and_log.cpp **** 	value_count++;
 503              		.loc 1 20 8 view .LVU133
 504 0084 02F14042 		add	r2, r2, #-1073741824
  21:adc_and_log.cpp **** }
 505              		.loc 1 21 13 view .LVU134
 506 0088 2B60     		str	r3, [r5]
  20:adc_and_log.cpp **** 	value_count++;
 507              		.loc 1 20 8 view .LVU135
 508 008a 1180     		strh	r1, [r2]	@ movhi
  21:adc_and_log.cpp **** }
 509              		.loc 1 21 2 is_stmt 1 view .LVU136
 510              	.LVL32:
  21:adc_and_log.cpp **** }
 511              		.loc 1 21 2 is_stmt 0 view .LVU137
 512              	.LBE131:
 513              	.LBE133:
  45:adc_and_log.cpp **** 		}
 514              		.loc 1 45 4 is_stmt 1 view .LVU138
  45:adc_and_log.cpp **** 		}
 515              		.loc 1 45 17 is_stmt 0 view .LVU139
 516 008c FFF7FEFF 		bl	_ZN5daisy6System5DelayEm
 517              	.LVL33:
  42:adc_and_log.cpp **** 		{
 518              		.loc 1 42 3 is_stmt 1 discriminator 3 view .LVU140
  42:adc_and_log.cpp **** 		{
 519              		.loc 1 42 24 discriminator 1 view .LVU141
 520 0090 013C     		subs	r4, r4, #1
 521 0092 EED1     		bne	.L19
 522 0094 4FF04046 		mov	r6, #-1073741824
 523              	.L20:
 524              	.LVL34:
  42:adc_and_log.cpp **** 		{
 525              		.loc 1 42 24 is_stmt 0 discriminator 1 view .LVU142
 526              	.LBE127:
 527              	.LBE126:
 528              	.LBB134:
 529              	.LBB135:
 530              	.LBB136:
 531              	.LBB137:
  29:adc_and_log.cpp **** 		unsigned char const *p = (unsigned char const *)((sizeof(uint16_t) * i) + ram);
 532              		.loc 1 29 3 is_stmt 1 view .LVU143
  30:adc_and_log.cpp **** 		memcpy(&result, p, sizeof(uint16_t));
 533              		.loc 1 30 3 view .LVU144
  31:adc_and_log.cpp **** 		sum += result;
 534              		.loc 1 31 3 view .LVU145
  32:adc_and_log.cpp **** 		System::Delay(1);
 535              		.loc 1 32 3 view .LVU146
  32:adc_and_log.cpp **** 		System::Delay(1);
 536              		.loc 1 32 10 is_stmt 0 view .LVU147
 537 0098 36F8083B 		ldrh	r3, [r6], #8
 538              	.LVL35:
  33:adc_and_log.cpp **** 	}
 539              		.loc 1 33 16 view .LVU148
 540 009c 0120     		movs	r0, #1
  32:adc_and_log.cpp **** 		System::Delay(1);
 541              		.loc 1 32 7 view .LVU149
ARM GAS  /tmp/cckBeWOW.s 			page 21


 542 009e 1C19     		adds	r4, r3, r4
  33:adc_and_log.cpp **** 	}
 543              		.loc 1 33 3 is_stmt 1 view .LVU150
  33:adc_and_log.cpp **** 	}
 544              		.loc 1 33 16 is_stmt 0 view .LVU151
 545 00a0 FFF7FEFF 		bl	_ZN5daisy6System5DelayEm
 546              	.LVL36:
  33:adc_and_log.cpp **** 	}
 547              		.loc 1 33 16 view .LVU152
 548              	.LBE137:
  27:adc_and_log.cpp **** 	{
 549              		.loc 1 27 2 is_stmt 1 discriminator 3 view .LVU153
  27:adc_and_log.cpp **** 	{
 550              		.loc 1 27 23 discriminator 1 view .LVU154
 551 00a4 104B     		ldr	r3, .L25+28
 552 00a6 9E42     		cmp	r6, r3
 553 00a8 F6D1     		bne	.L20
 554              	.LBE136:
  35:adc_and_log.cpp **** 	System::Delay(1);
 555              		.loc 1 35 2 view .LVU155
 556              	.LVL37:
  36:adc_and_log.cpp **** 	hw.PrintLine("abc %d", avg);
 557              		.loc 1 36 2 view .LVU156
  36:adc_and_log.cpp **** 	hw.PrintLine("abc %d", avg);
 558              		.loc 1 36 15 is_stmt 0 view .LVU157
 559 00aa 0120     		movs	r0, #1
 560 00ac FFF7FEFF 		bl	_ZN5daisy6System5DelayEm
 561              	.LVL38:
  37:adc_and_log.cpp **** }
 562              		.loc 1 37 2 is_stmt 1 view .LVU158
 563              	.LBB138:
 564              	.LBI138:
 119:../../DaisyExamples/libDaisy//src/daisy_seed.h ****     {
 565              		.loc 2 119 17 view .LVU159
 566              	.LBB139:
 121:../../DaisyExamples/libDaisy//src/daisy_seed.h ****     }
 567              		.loc 2 121 23 is_stmt 0 view .LVU160
 568 00b0 C4F38F21 		ubfx	r1, r4, #10, #16
 569 00b4 0D48     		ldr	r0, .L25+32
 570 00b6 FFF7FEFF 		bl	_ZN5daisy6LoggerILNS_17LoggerDestinationE1EE9PrintLineEPKcz
 571              	.LVL39:
 121:../../DaisyExamples/libDaisy//src/daisy_seed.h ****     }
 572              		.loc 2 121 23 view .LVU161
 573              	.LBE139:
 574              	.LBE138:
 575              	.LBE135:
 576              	.LBE134:
  69:adc_and_log.cpp **** 		get_avg_from_ram();
  70:adc_and_log.cpp **** 		hw.PrintLine("ADC 1: %d", hw.adc.Get(0));
 577              		.loc 1 70 3 is_stmt 1 discriminator 1 view .LVU162
 578              		.loc 1 70 15 is_stmt 0 discriminator 1 view .LVU163
 579 00ba 0021     		movs	r1, #0
 580 00bc 0748     		ldr	r0, .L25+16
 581 00be FFF7FEFF 		bl	_ZNK5daisy9AdcHandle3GetEh
 582              	.LVL40:
 583              		.loc 1 70 15 discriminator 1 view .LVU164
 584 00c2 0146     		mov	r1, r0
ARM GAS  /tmp/cckBeWOW.s 			page 22


 585              	.LVL41:
 586              	.LBB140:
 587              	.LBI140:
 119:../../DaisyExamples/libDaisy//src/daisy_seed.h ****     {
 588              		.loc 2 119 17 is_stmt 1 view .LVU165
 589              	.LBB141:
 121:../../DaisyExamples/libDaisy//src/daisy_seed.h ****     }
 590              		.loc 2 121 23 is_stmt 0 view .LVU166
 591 00c4 0A48     		ldr	r0, .L25+36
 592 00c6 FFF7FEFF 		bl	_ZN5daisy6LoggerILNS_17LoggerDestinationE1EE9PrintLineEPKcz
 593              	.LVL42:
 121:../../DaisyExamples/libDaisy//src/daisy_seed.h ****     }
 594              		.loc 2 121 23 view .LVU167
 595              	.LBE141:
 596              	.LBE140:
  66:adc_and_log.cpp **** 		System::Delay(250);
 597              		.loc 1 66 2 is_stmt 1 view .LVU168
 598 00ca CDE7     		b	.L21
 599              	.L26:
 600              		.align	2
 601              	.L25:
 602 00cc 00000000 		.word	.LC1
 603 00d0 00000000 		.word	_ZL2hw
 604 00d4 20000000 		.word	.LC2
 605 00d8 00007A44 		.word	1148846080
 606 00dc 18000000 		.word	_ZL2hw+24
 607 00e0 00000000 		.word	_ZL11value_count
 608 00e4 34000000 		.word	.LC3
 609 00e8 002000C0 		.word	-1073733632
 610 00ec 00000000 		.word	.LC0
 611 00f0 50000000 		.word	.LC4
 612              		.cfi_endproc
 613              	.LFE4791:
 615              		.section	.text.startup._GLOBAL__sub_I__Z11store_valuet,"ax",%progbits
 616              		.align	1
 617              		.p2align 2,,3
 618              		.syntax unified
 619              		.thumb
 620              		.thumb_func
 622              	_GLOBAL__sub_I__Z11store_valuet:
 623              	.LFB5376:
  71:adc_and_log.cpp **** 	}
  72:adc_and_log.cpp **** }
 624              		.loc 1 72 1 view -0
 625              		.cfi_startproc
 626              		@ args = 0, pretend = 0, frame = 0
 627              		@ frame_needed = 0, uses_anonymous_args = 0
 628              		@ link register save eliminated.
 629              	.LBB160:
 630              	.LBI160:
 631              		.loc 1 72 1 view .LVU170
 632              	.LVL43:
 633              	.LBB161:
 634              	.LBB162:
 635              	.LBI162:
  21:../../DaisyExamples/libDaisy//src/daisy_seed.h ****     ~DaisySeed() {}
 636              		.loc 2 21 5 view .LVU171
ARM GAS  /tmp/cckBeWOW.s 			page 23


 637              	.LBB163:
 638              	.LBB164:
 639              	.LBI164:
 640              		.file 8 "../../DaisyExamples/libDaisy//src/per/qspi.h"
   1:../../DaisyExamples/libDaisy//src/per/qspi.h **** #ifndef DSY_QSPI
   2:../../DaisyExamples/libDaisy//src/per/qspi.h **** #define DSY_QSPI /**< Macro */
   3:../../DaisyExamples/libDaisy//src/per/qspi.h **** 
   4:../../DaisyExamples/libDaisy//src/per/qspi.h **** #ifndef UNIT_TEST // for unit tests, a dummy implementation
   5:../../DaisyExamples/libDaisy//src/per/qspi.h **** 
   6:../../DaisyExamples/libDaisy//src/per/qspi.h **** #include <cstdint>
   7:../../DaisyExamples/libDaisy//src/per/qspi.h **** #include "daisy_core.h" // Added for dsy_gpio_pin typedef
   8:../../DaisyExamples/libDaisy//src/per/qspi.h **** 
   9:../../DaisyExamples/libDaisy//src/per/qspi.h **** #define DSY_QSPI_TEXT       \
  10:../../DaisyExamples/libDaisy//src/per/qspi.h ****     __attribute__((section( \
  11:../../DaisyExamples/libDaisy//src/per/qspi.h ****         ".qspiflash_text"))) /**< used for reading memory in memory_mapped mode. */
  12:../../DaisyExamples/libDaisy//src/per/qspi.h **** #define DSY_QSPI_DATA       \
  13:../../DaisyExamples/libDaisy//src/per/qspi.h ****     __attribute__((section( \
  14:../../DaisyExamples/libDaisy//src/per/qspi.h ****         ".qspiflash_data"))) /**< used for reading memory in memory_mapped mode. */
  15:../../DaisyExamples/libDaisy//src/per/qspi.h **** #define DSY_QSPI_BSS        \
  16:../../DaisyExamples/libDaisy//src/per/qspi.h ****     __attribute__((section( \
  17:../../DaisyExamples/libDaisy//src/per/qspi.h ****         ".qspiflash_bss"))) /**< used for reading memory in memory_mapped mode. */
  18:../../DaisyExamples/libDaisy//src/per/qspi.h **** 
  19:../../DaisyExamples/libDaisy//src/per/qspi.h **** namespace daisy
  20:../../DaisyExamples/libDaisy//src/per/qspi.h **** {
  21:../../DaisyExamples/libDaisy//src/per/qspi.h **** /** @addtogroup serial
  22:../../DaisyExamples/libDaisy//src/per/qspi.h **** @{
  23:../../DaisyExamples/libDaisy//src/per/qspi.h **** */
  24:../../DaisyExamples/libDaisy//src/per/qspi.h **** 
  25:../../DaisyExamples/libDaisy//src/per/qspi.h **** /** 
  26:../../DaisyExamples/libDaisy//src/per/qspi.h ****  Driver for QSPI peripheral to interface with external flash memory. \n 
  27:../../DaisyExamples/libDaisy//src/per/qspi.h ****     Currently supported QSPI Devices: \n 
  28:../../DaisyExamples/libDaisy//src/per/qspi.h ****     * IS25LP080D
  29:../../DaisyExamples/libDaisy//src/per/qspi.h **** */
  30:../../DaisyExamples/libDaisy//src/per/qspi.h **** class QSPIHandle
  31:../../DaisyExamples/libDaisy//src/per/qspi.h **** {
  32:../../DaisyExamples/libDaisy//src/per/qspi.h ****   public:
  33:../../DaisyExamples/libDaisy//src/per/qspi.h ****     enum Result
  34:../../DaisyExamples/libDaisy//src/per/qspi.h ****     {
  35:../../DaisyExamples/libDaisy//src/per/qspi.h ****         OK = 0,
  36:../../DaisyExamples/libDaisy//src/per/qspi.h ****         ERR
  37:../../DaisyExamples/libDaisy//src/per/qspi.h ****     };
  38:../../DaisyExamples/libDaisy//src/per/qspi.h **** 
  39:../../DaisyExamples/libDaisy//src/per/qspi.h ****     /** Indicates the current status of the module. 
  40:../../DaisyExamples/libDaisy//src/per/qspi.h ****          *  Warnings are indicated by a leading W.
  41:../../DaisyExamples/libDaisy//src/per/qspi.h ****          *  Errors are indicated by a leading E and cause an immediate exit.
  42:../../DaisyExamples/libDaisy//src/per/qspi.h ****          * 
  43:../../DaisyExamples/libDaisy//src/per/qspi.h ****          *  \param GOOD - No errors have been reported.
  44:../../DaisyExamples/libDaisy//src/per/qspi.h ****          *  \param E_HAL_ERROR - HAL code did not return HAL_OK.
  45:../../DaisyExamples/libDaisy//src/per/qspi.h ****          *  \param E_SWITCHING_MODES - An error was encountered while switching QSPI peripheral mod
  46:../../DaisyExamples/libDaisy//src/per/qspi.h ****          *  \param E_INVALID_MODE - QSPI should not be written to while the program is executing fr
  47:../../DaisyExamples/libDaisy//src/per/qspi.h ****          */
  48:../../DaisyExamples/libDaisy//src/per/qspi.h ****     enum Status
  49:../../DaisyExamples/libDaisy//src/per/qspi.h ****     {
  50:../../DaisyExamples/libDaisy//src/per/qspi.h ****         GOOD = 0,
  51:../../DaisyExamples/libDaisy//src/per/qspi.h ****         E_HAL_ERROR,
  52:../../DaisyExamples/libDaisy//src/per/qspi.h ****         E_SWITCHING_MODES,
  53:../../DaisyExamples/libDaisy//src/per/qspi.h ****         E_INVALID_MODE,
ARM GAS  /tmp/cckBeWOW.s 			page 24


  54:../../DaisyExamples/libDaisy//src/per/qspi.h ****     };
  55:../../DaisyExamples/libDaisy//src/per/qspi.h **** 
  56:../../DaisyExamples/libDaisy//src/per/qspi.h ****     /** Configuration structure for interfacing with QSPI Driver */
  57:../../DaisyExamples/libDaisy//src/per/qspi.h ****     struct Config
  58:../../DaisyExamples/libDaisy//src/per/qspi.h ****     {
  59:../../DaisyExamples/libDaisy//src/per/qspi.h ****         /** Flash Devices supported. (Both of these are more-or-less the same, just different sizes
  60:../../DaisyExamples/libDaisy//src/per/qspi.h ****         enum Device
  61:../../DaisyExamples/libDaisy//src/per/qspi.h ****         {
  62:../../DaisyExamples/libDaisy//src/per/qspi.h ****             IS25LP080D,  /**< & */
  63:../../DaisyExamples/libDaisy//src/per/qspi.h ****             IS25LP064A,  /**< & */
  64:../../DaisyExamples/libDaisy//src/per/qspi.h ****             DEVICE_LAST, /**< & */
  65:../../DaisyExamples/libDaisy//src/per/qspi.h ****         };
  66:../../DaisyExamples/libDaisy//src/per/qspi.h **** 
  67:../../DaisyExamples/libDaisy//src/per/qspi.h ****         /** 
  68:../../DaisyExamples/libDaisy//src/per/qspi.h ****         Modes of operation.
  69:../../DaisyExamples/libDaisy//src/per/qspi.h ****         Memory Mapped mode: QSPI configured so that the QSPI can be
  70:../../DaisyExamples/libDaisy//src/per/qspi.h ****         read from starting address 0x90000000. Writing is not
  71:../../DaisyExamples/libDaisy//src/per/qspi.h ****         possible in this mode. \n 
  72:../../DaisyExamples/libDaisy//src/per/qspi.h ****         Indirect Polling mode: Device driver enabled. 
  73:../../DaisyExamples/libDaisy//src/per/qspi.h ****         */
  74:../../DaisyExamples/libDaisy//src/per/qspi.h ****         enum Mode
  75:../../DaisyExamples/libDaisy//src/per/qspi.h ****         {
  76:../../DaisyExamples/libDaisy//src/per/qspi.h ****             MEMORY_MAPPED,    /**< & */
  77:../../DaisyExamples/libDaisy//src/per/qspi.h ****             INDIRECT_POLLING, /**< & */
  78:../../DaisyExamples/libDaisy//src/per/qspi.h ****             MODE_LAST,
  79:../../DaisyExamples/libDaisy//src/per/qspi.h ****         };
  80:../../DaisyExamples/libDaisy//src/per/qspi.h **** 
  81:../../DaisyExamples/libDaisy//src/per/qspi.h ****         //SCK,  CE# (active low)
  82:../../DaisyExamples/libDaisy//src/per/qspi.h ****         struct
  83:../../DaisyExamples/libDaisy//src/per/qspi.h ****         {
  84:../../DaisyExamples/libDaisy//src/per/qspi.h ****             dsy_gpio_pin io0; /**< & */
  85:../../DaisyExamples/libDaisy//src/per/qspi.h ****             dsy_gpio_pin io1; /**< & */
  86:../../DaisyExamples/libDaisy//src/per/qspi.h ****             dsy_gpio_pin io2; /**< & */
  87:../../DaisyExamples/libDaisy//src/per/qspi.h ****             dsy_gpio_pin io3; /**< & */
  88:../../DaisyExamples/libDaisy//src/per/qspi.h ****             dsy_gpio_pin clk; /**< & */
  89:../../DaisyExamples/libDaisy//src/per/qspi.h ****             dsy_gpio_pin ncs; /**< & */
  90:../../DaisyExamples/libDaisy//src/per/qspi.h ****         } pin_config;
  91:../../DaisyExamples/libDaisy//src/per/qspi.h **** 
  92:../../DaisyExamples/libDaisy//src/per/qspi.h ****         Device device;
  93:../../DaisyExamples/libDaisy//src/per/qspi.h ****         Mode   mode;
  94:../../DaisyExamples/libDaisy//src/per/qspi.h ****     };
  95:../../DaisyExamples/libDaisy//src/per/qspi.h **** 
  96:../../DaisyExamples/libDaisy//src/per/qspi.h ****     /** 
  97:../../DaisyExamples/libDaisy//src/per/qspi.h ****         Initializes QSPI peripheral, and Resets, and prepares memory for access.
  98:../../DaisyExamples/libDaisy//src/per/qspi.h ****         \param config should be populated with the mode, device and pin_config before calling this 
  99:../../DaisyExamples/libDaisy//src/per/qspi.h ****         \return Result::OK or Result::ERR
 100:../../DaisyExamples/libDaisy//src/per/qspi.h ****         */
 101:../../DaisyExamples/libDaisy//src/per/qspi.h ****     Result Init(const Config& config);
 102:../../DaisyExamples/libDaisy//src/per/qspi.h **** 
 103:../../DaisyExamples/libDaisy//src/per/qspi.h ****     /** Returns the current config. */
 104:../../DaisyExamples/libDaisy//src/per/qspi.h ****     const Config& GetConfig() const;
 105:../../DaisyExamples/libDaisy//src/per/qspi.h **** 
 106:../../DaisyExamples/libDaisy//src/per/qspi.h ****     // Couldn't this just be called before anything else in init? That
 107:../../DaisyExamples/libDaisy//src/per/qspi.h ****     // would make manually calling it unnecessary.
 108:../../DaisyExamples/libDaisy//src/per/qspi.h ****     /** 
 109:../../DaisyExamples/libDaisy//src/per/qspi.h ****         Deinitializes the peripheral
 110:../../DaisyExamples/libDaisy//src/per/qspi.h ****         This should be called before reinitializing QSPI in a different mode.
ARM GAS  /tmp/cckBeWOW.s 			page 25


 111:../../DaisyExamples/libDaisy//src/per/qspi.h ****         \return Result::OK or Result::ERR
 112:../../DaisyExamples/libDaisy//src/per/qspi.h ****         */
 113:../../DaisyExamples/libDaisy//src/per/qspi.h ****     Result DeInit();
 114:../../DaisyExamples/libDaisy//src/per/qspi.h **** 
 115:../../DaisyExamples/libDaisy//src/per/qspi.h ****     /** 
 116:../../DaisyExamples/libDaisy//src/per/qspi.h ****         Writes a single page to to the specified address on the QSPI chip.
 117:../../DaisyExamples/libDaisy//src/per/qspi.h ****         For IS25LP*, page size is 256 bytes.
 118:../../DaisyExamples/libDaisy//src/per/qspi.h ****         \param address Address to write to
 119:../../DaisyExamples/libDaisy//src/per/qspi.h ****         \param size Buffer size
 120:../../DaisyExamples/libDaisy//src/per/qspi.h ****         \param buffer Buffer to write
 121:../../DaisyExamples/libDaisy//src/per/qspi.h ****         \return Result::OK or Result::ERR
 122:../../DaisyExamples/libDaisy//src/per/qspi.h ****         */
 123:../../DaisyExamples/libDaisy//src/per/qspi.h ****     Result WritePage(uint32_t address, uint32_t size, uint8_t* buffer);
 124:../../DaisyExamples/libDaisy//src/per/qspi.h **** 
 125:../../DaisyExamples/libDaisy//src/per/qspi.h ****     /** 
 126:../../DaisyExamples/libDaisy//src/per/qspi.h ****         Writes data in buffer to to the QSPI. Starting at address to address+size 
 127:../../DaisyExamples/libDaisy//src/per/qspi.h ****         \param address Address to write to
 128:../../DaisyExamples/libDaisy//src/per/qspi.h ****         \param size Buffer size
 129:../../DaisyExamples/libDaisy//src/per/qspi.h ****         \param buffer Buffer to write
 130:../../DaisyExamples/libDaisy//src/per/qspi.h ****         \return Result::OK or Result::ERR
 131:../../DaisyExamples/libDaisy//src/per/qspi.h ****         */
 132:../../DaisyExamples/libDaisy//src/per/qspi.h ****     Result Write(uint32_t address, uint32_t size, uint8_t* buffer);
 133:../../DaisyExamples/libDaisy//src/per/qspi.h **** 
 134:../../DaisyExamples/libDaisy//src/per/qspi.h ****     /** 
 135:../../DaisyExamples/libDaisy//src/per/qspi.h ****         Erases the area specified on the chip.
 136:../../DaisyExamples/libDaisy//src/per/qspi.h ****         Erasures will happen by 4K, 32K or 64K increments.
 137:../../DaisyExamples/libDaisy//src/per/qspi.h ****         Smallest erase possible is 4kB at a time. (on IS25LP*)
 138:../../DaisyExamples/libDaisy//src/per/qspi.h ****         \param start_addr Address to begin erasing from
 139:../../DaisyExamples/libDaisy//src/per/qspi.h ****         \param end_addr  Address to stop erasing at
 140:../../DaisyExamples/libDaisy//src/per/qspi.h ****         \return Result::OK or Result::ERR
 141:../../DaisyExamples/libDaisy//src/per/qspi.h ****         */
 142:../../DaisyExamples/libDaisy//src/per/qspi.h ****     Result Erase(uint32_t start_addr, uint32_t end_addr);
 143:../../DaisyExamples/libDaisy//src/per/qspi.h **** 
 144:../../DaisyExamples/libDaisy//src/per/qspi.h ****     /**  
 145:../../DaisyExamples/libDaisy//src/per/qspi.h ****          Erases a single sector of the chip.  
 146:../../DaisyExamples/libDaisy//src/per/qspi.h ****         TODO: Document the size of this function. 
 147:../../DaisyExamples/libDaisy//src/per/qspi.h ****         \param address Address of sector to erase
 148:../../DaisyExamples/libDaisy//src/per/qspi.h ****         \return Result::OK or Result::ERR
 149:../../DaisyExamples/libDaisy//src/per/qspi.h ****         */
 150:../../DaisyExamples/libDaisy//src/per/qspi.h ****     Result EraseSector(uint32_t address);
 151:../../DaisyExamples/libDaisy//src/per/qspi.h **** 
 152:../../DaisyExamples/libDaisy//src/per/qspi.h ****     /** Returns the current class status. Useful for debugging.
 153:../../DaisyExamples/libDaisy//src/per/qspi.h ****      *  \returns Status
 154:../../DaisyExamples/libDaisy//src/per/qspi.h ****      */
 155:../../DaisyExamples/libDaisy//src/per/qspi.h ****     Status GetStatus();
 156:../../DaisyExamples/libDaisy//src/per/qspi.h **** 
 157:../../DaisyExamples/libDaisy//src/per/qspi.h ****     /** Returns a pointer to the actual memory used 
 158:../../DaisyExamples/libDaisy//src/per/qspi.h ****      *  The memory at this address is read-only
 159:../../DaisyExamples/libDaisy//src/per/qspi.h ****      *  to write to it use the Write function.
 160:../../DaisyExamples/libDaisy//src/per/qspi.h ****      * 
 161:../../DaisyExamples/libDaisy//src/per/qspi.h ****      *  \param offset returns the pointer starting this 
 162:../../DaisyExamples/libDaisy//src/per/qspi.h ****      *                many bytes into the memory
 163:../../DaisyExamples/libDaisy//src/per/qspi.h ****     */
 164:../../DaisyExamples/libDaisy//src/per/qspi.h ****     void* GetData(uint32_t offset = 0);
 165:../../DaisyExamples/libDaisy//src/per/qspi.h **** 
 166:../../DaisyExamples/libDaisy//src/per/qspi.h ****     QSPIHandle() : pimpl_(nullptr) {}
 641              		.loc 8 166 5 view .LVU172
ARM GAS  /tmp/cckBeWOW.s 			page 26


 642              	.LBB165:
 643              	.LBB166:
 644              		.loc 8 166 20 is_stmt 0 view .LVU173
 645 0000 0448     		ldr	r0, .L28
 646 0002 0023     		movs	r3, #0
 647              	.LBE166:
 648              	.LBE165:
 649              	.LBE164:
 650              	.LBE163:
 651              	.LBE162:
  13:adc_and_log.cpp **** static int value_count = 0;
 652              		.loc 1 13 18 discriminator 1 view .LVU174
 653 0004 044A     		ldr	r2, .L28+4
 654 0006 0549     		ldr	r1, .L28+8
 655              	.LBB180:
 656              	.LBB179:
 657              	.LBB169:
 658              	.LBB168:
 659              	.LBB167:
 660              		.loc 8 166 20 view .LVU175
 661 0008 0360     		str	r3, [r0]
 662              	.LVL44:
 663              		.loc 8 166 20 view .LVU176
 664              	.LBE167:
 665              	.LBE168:
 666              	.LBE169:
 667              	.LBB170:
 668              	.LBI170:
  95:../../DaisyExamples/libDaisy//src/hid/audio.h ****     ~AudioHandle() {}
 669              		.loc 6 95 5 is_stmt 1 view .LVU177
 670              	.LBB171:
 671              	.LBB172:
  95:../../DaisyExamples/libDaisy//src/hid/audio.h ****     ~AudioHandle() {}
 672              		.loc 6 95 21 is_stmt 0 view .LVU178
 673 000a 4361     		str	r3, [r0, #20]
 674              	.LVL45:
  95:../../DaisyExamples/libDaisy//src/hid/audio.h ****     ~AudioHandle() {}
 675              		.loc 6 95 21 view .LVU179
 676              	.LBE172:
 677              	.LBE171:
 678              	.LBE170:
 679              	.LBB173:
 680              	.LBI173:
  92:../../DaisyExamples/libDaisy//src/per/adc.h ****     ~AdcHandle() {}
 681              		.loc 5 92 5 is_stmt 1 view .LVU180
  92:../../DaisyExamples/libDaisy//src/per/adc.h ****     ~AdcHandle() {}
 682              		.loc 5 92 5 is_stmt 0 view .LVU181
 683              	.LBE173:
 684              	.LBB174:
 685              	.LBI174:
 686              		.file 9 "../../DaisyExamples/libDaisy//src/per/dac.h"
   1:../../DaisyExamples/libDaisy//src/per/dac.h **** #pragma once
   2:../../DaisyExamples/libDaisy//src/per/dac.h **** #ifndef DSY_DAC_H
   3:../../DaisyExamples/libDaisy//src/per/dac.h **** #define DSY_DAC_H
   4:../../DaisyExamples/libDaisy//src/per/dac.h **** 
   5:../../DaisyExamples/libDaisy//src/per/dac.h **** #include "daisy_core.h"
   6:../../DaisyExamples/libDaisy//src/per/dac.h **** 
ARM GAS  /tmp/cckBeWOW.s 			page 27


   7:../../DaisyExamples/libDaisy//src/per/dac.h **** namespace daisy
   8:../../DaisyExamples/libDaisy//src/per/dac.h **** {
   9:../../DaisyExamples/libDaisy//src/per/dac.h **** /** @brief DAC handle for Built-in DAC Peripheral 
  10:../../DaisyExamples/libDaisy//src/per/dac.h ****  *  @ingroup per_analog
  11:../../DaisyExamples/libDaisy//src/per/dac.h ****  ** 
  12:../../DaisyExamples/libDaisy//src/per/dac.h ****  ** For now only Normal Mode is supported,
  13:../../DaisyExamples/libDaisy//src/per/dac.h ****  ** Sample and hold mode provides reduced power consumption, but requires a bit more setup.
  14:../../DaisyExamples/libDaisy//src/per/dac.h ****  **
  15:../../DaisyExamples/libDaisy//src/per/dac.h ****  ** For now connecting the DAC through other internal peripherals is also not supported.
  16:../../DaisyExamples/libDaisy//src/per/dac.h ****  **
  17:../../DaisyExamples/libDaisy//src/per/dac.h ****  ** Since the DAC channels have dedicated pins we don't need to pass in a pin config like with
  18:../../DaisyExamples/libDaisy//src/per/dac.h ****  ** other modules. However, it is still important to not try to use the DAC pins for anything else.
  19:../../DaisyExamples/libDaisy//src/per/dac.h ****  ** DAC Channel 1 is on PA4, and DAC Channel 2 is on PA5
  20:../../DaisyExamples/libDaisy//src/per/dac.h ****  ***/
  21:../../DaisyExamples/libDaisy//src/per/dac.h **** class DacHandle
  22:../../DaisyExamples/libDaisy//src/per/dac.h **** {
  23:../../DaisyExamples/libDaisy//src/per/dac.h ****   public:
  24:../../DaisyExamples/libDaisy//src/per/dac.h ****     /** Return Values for the DacHandle class */
  25:../../DaisyExamples/libDaisy//src/per/dac.h ****     enum class Result
  26:../../DaisyExamples/libDaisy//src/per/dac.h ****     {
  27:../../DaisyExamples/libDaisy//src/per/dac.h ****         OK,
  28:../../DaisyExamples/libDaisy//src/per/dac.h ****         ERR,
  29:../../DaisyExamples/libDaisy//src/per/dac.h ****     };
  30:../../DaisyExamples/libDaisy//src/per/dac.h **** 
  31:../../DaisyExamples/libDaisy//src/per/dac.h ****     /** Selects which channel(s) will be configured for use. */
  32:../../DaisyExamples/libDaisy//src/per/dac.h ****     enum class Channel
  33:../../DaisyExamples/libDaisy//src/per/dac.h ****     {
  34:../../DaisyExamples/libDaisy//src/per/dac.h ****         ONE,
  35:../../DaisyExamples/libDaisy//src/per/dac.h ****         TWO,
  36:../../DaisyExamples/libDaisy//src/per/dac.h ****         BOTH,
  37:../../DaisyExamples/libDaisy//src/per/dac.h ****     };
  38:../../DaisyExamples/libDaisy//src/per/dac.h **** 
  39:../../DaisyExamples/libDaisy//src/per/dac.h ****     /** Sets the Mode for the DAC channels.
  40:../../DaisyExamples/libDaisy//src/per/dac.h ****      **
  41:../../DaisyExamples/libDaisy//src/per/dac.h ****      ** Polling mode uses the blocking mode to transmit a single value at a time.
  42:../../DaisyExamples/libDaisy//src/per/dac.h ****      **
  43:../../DaisyExamples/libDaisy//src/per/dac.h ****      ** DMA mode uses a buffer, and periodically transmits it triggering a 
  44:../../DaisyExamples/libDaisy//src/per/dac.h ****      ** callback to fill the buffer when it is ready for more samples.
  45:../../DaisyExamples/libDaisy//src/per/dac.h ****      ***/
  46:../../DaisyExamples/libDaisy//src/per/dac.h ****     enum class Mode
  47:../../DaisyExamples/libDaisy//src/per/dac.h ****     {
  48:../../DaisyExamples/libDaisy//src/per/dac.h ****         POLLING,
  49:../../DaisyExamples/libDaisy//src/per/dac.h ****         DMA,
  50:../../DaisyExamples/libDaisy//src/per/dac.h ****     };
  51:../../DaisyExamples/libDaisy//src/per/dac.h **** 
  52:../../DaisyExamples/libDaisy//src/per/dac.h ****     /** Sets the number of bits per sample transmitted out of the DAC.
  53:../../DaisyExamples/libDaisy//src/per/dac.h ****      ** The output range will be: 0V - VDDA
  54:../../DaisyExamples/libDaisy//src/per/dac.h ****      ** The resolution will be roughly: bitdepth / (VDDA - 0V) 
  55:../../DaisyExamples/libDaisy//src/per/dac.h ****      ***/
  56:../../DaisyExamples/libDaisy//src/per/dac.h ****     enum class BitDepth
  57:../../DaisyExamples/libDaisy//src/per/dac.h ****     {
  58:../../DaisyExamples/libDaisy//src/per/dac.h ****         BITS_8,
  59:../../DaisyExamples/libDaisy//src/per/dac.h ****         BITS_12
  60:../../DaisyExamples/libDaisy//src/per/dac.h ****     };
  61:../../DaisyExamples/libDaisy//src/per/dac.h **** 
  62:../../DaisyExamples/libDaisy//src/per/dac.h ****     /** Sets whether the DAC output is buffered for higher drive ability. */
  63:../../DaisyExamples/libDaisy//src/per/dac.h ****     enum class BufferState
ARM GAS  /tmp/cckBeWOW.s 			page 28


  64:../../DaisyExamples/libDaisy//src/per/dac.h ****     {
  65:../../DaisyExamples/libDaisy//src/per/dac.h ****         ENABLED,
  66:../../DaisyExamples/libDaisy//src/per/dac.h ****         DISABLED,
  67:../../DaisyExamples/libDaisy//src/per/dac.h ****     };
  68:../../DaisyExamples/libDaisy//src/per/dac.h **** 
  69:../../DaisyExamples/libDaisy//src/per/dac.h ****     /** Configuration structure for initializing the DAC structure. */
  70:../../DaisyExamples/libDaisy//src/per/dac.h ****     struct Config
  71:../../DaisyExamples/libDaisy//src/per/dac.h ****     {
  72:../../DaisyExamples/libDaisy//src/per/dac.h ****         /** Target Samplerate in Hz used to configure the internal 
  73:../../DaisyExamples/libDaisy//src/per/dac.h ****          ** timebase for DMA mode. Does nothing in POLLING mode.
  74:../../DaisyExamples/libDaisy//src/per/dac.h ****          ** If the value is 0 at Init time this will default to 48000Hz 
  75:../../DaisyExamples/libDaisy//src/per/dac.h ****          ** otherwise the driver will attempt meet the target.*/
  76:../../DaisyExamples/libDaisy//src/per/dac.h ****         uint32_t target_samplerate;
  77:../../DaisyExamples/libDaisy//src/per/dac.h **** 
  78:../../DaisyExamples/libDaisy//src/per/dac.h ****         Channel     chn;
  79:../../DaisyExamples/libDaisy//src/per/dac.h ****         Mode        mode;
  80:../../DaisyExamples/libDaisy//src/per/dac.h ****         BitDepth    bitdepth;
  81:../../DaisyExamples/libDaisy//src/per/dac.h ****         BufferState buff_state;
  82:../../DaisyExamples/libDaisy//src/per/dac.h ****     };
  83:../../DaisyExamples/libDaisy//src/per/dac.h **** 
  84:../../DaisyExamples/libDaisy//src/per/dac.h ****     DacHandle() : pimpl_(nullptr) {}
 687              		.loc 9 84 5 is_stmt 1 view .LVU182
 688              	.LBB175:
 689              	.LBB176:
 690              		.loc 9 84 19 is_stmt 0 view .LVU183
 691 000c 0362     		str	r3, [r0, #32]
 692              	.LVL46:
 693              		.loc 9 84 19 view .LVU184
 694              	.LBE176:
 695              	.LBE175:
 696              	.LBE174:
 697              	.LBB177:
 698              	.LBI177:
  40:../../DaisyExamples/libDaisy//src/hid/usb.h **** 
 699              		.loc 4 40 5 is_stmt 1 view .LVU185
  40:../../DaisyExamples/libDaisy//src/hid/usb.h **** 
 700              		.loc 4 40 5 is_stmt 0 view .LVU186
 701              	.LBE177:
 702              	.LBB178:
 703              	.LBI178:
  77:../../DaisyExamples/libDaisy//src/sys/system.h ****     ~System() {}
 704              		.loc 3 77 5 is_stmt 1 view .LVU187
  77:../../DaisyExamples/libDaisy//src/sys/system.h ****     ~System() {}
 705              		.loc 3 77 5 is_stmt 0 view .LVU188
 706              	.LBE178:
 707              	.LBE179:
 708              	.LBE180:
  13:adc_and_log.cpp **** static int value_count = 0;
 709              		.loc 1 13 18 discriminator 1 view .LVU189
 710 000e FFF7FEBF 		b	__aeabi_atexit
 711              	.LVL47:
 712              	.L29:
 713 0012 00BF     		.align	2
 714              	.L28:
 715 0014 00000000 		.word	_ZL2hw
 716 0018 00000000 		.word	__dso_handle
 717 001c 00000000 		.word	_ZN5daisy9DaisySeedD1Ev
ARM GAS  /tmp/cckBeWOW.s 			page 29


 718              	.LBE161:
 719              	.LBE160:
 720              		.cfi_endproc
 721              	.LFE5376:
 723              		.section	.init_array,"aw",%init_array
 724              		.align	2
 725 0000 00000000 		.word	_GLOBAL__sub_I__Z11store_valuet(target1)
 726              		.section	.bss._ZL11value_count,"aw",%nobits
 727              		.align	2
 730              	_ZL11value_count:
 731 0000 00000000 		.space	4
 732              		.section	.bss._ZL2hw,"aw",%nobits
 733              		.align	2
 736              	_ZL2hw:
 737 0000 00000000 		.space	60
 737      00000000 
 737      00000000 
 737      00000000 
 737      00000000 
 738              		.text
 739              	.Letext0:
 740              		.file 10 "/usr/arm-none-eabi/include/machine/_default_types.h"
 741              		.file 11 "/usr/arm-none-eabi/include/sys/_stdint.h"
 742              		.file 12 "/usr/arm-none-eabi/include/stdint.h"
 743              		.file 13 "/usr/lib/gcc/arm-none-eabi/13.2.0/include/stddef.h"
 744              		.file 14 "/usr/arm-none-eabi/include/c++/13.2.0/cmath"
 745              		.file 15 "/usr/arm-none-eabi/include/c++/13.2.0/bits/std_abs.h"
 746              		.file 16 "/usr/arm-none-eabi/include/c++/13.2.0/type_traits"
 747              		.file 17 "/usr/arm-none-eabi/include/c++/13.2.0/cstdlib"
 748              		.file 18 "/usr/arm-none-eabi/include/c++/13.2.0/cstdint"
 749              		.file 19 "/usr/arm-none-eabi/include/c++/13.2.0/bits/stl_pair.h"
 750              		.file 20 "/usr/arm-none-eabi/include/c++/13.2.0/debug/debug.h"
 751              		.file 21 "/usr/arm-none-eabi/include/c++/13.2.0/cstdarg"
 752              		.file 22 "/usr/arm-none-eabi/include/c++/13.2.0/cstdio"
 753              		.file 23 "/usr/arm-none-eabi/include/c++/13.2.0/cstring"
 754              		.file 24 "/usr/arm-none-eabi/include/c++/13.2.0/cwchar"
 755              		.file 25 "/usr/arm-none-eabi/include/c++/13.2.0/clocale"
 756              		.file 26 "/usr/arm-none-eabi/include/c++/13.2.0/bits/charconv.h"
 757              		.file 27 "/usr/arm-none-eabi/include/c++/13.2.0/bits/predefined_ops.h"
 758              		.file 28 "/usr/arm-none-eabi/include/sys/_types.h"
 759              		.file 29 "/usr/arm-none-eabi/include/sys/reent.h"
 760              		.file 30 "/usr/arm-none-eabi/include/sys/lock.h"
 761              		.file 31 "/usr/arm-none-eabi/include/math.h"
 762              		.file 32 "/usr/arm-none-eabi/include/stdlib.h"
 763              		.file 33 "/usr/arm-none-eabi/include/c++/13.2.0/math.h"
 764              		.file 34 "/usr/arm-none-eabi/include/c++/13.2.0/arm-none-eabi/thumb/v7e-m+dp/hard/bits/c++config.h
 765              		.file 35 "/usr/arm-none-eabi/include/c++/13.2.0/pstl/execution_defs.h"
 766              		.file 36 "/usr/arm-none-eabi/include/c++/13.2.0/stdlib.h"
 767              		.file 37 "../../DaisyExamples/libDaisy//src/daisy_core.h"
 768              		.file 38 "../../DaisyExamples/libDaisy//src/per/sai.h"
 769              		.file 39 "../../DaisyExamples/libDaisy//src/hid/logger_impl.h"
 770              		.file 40 "../../DaisyExamples/libDaisy//src/util/wav_format.h"
 771              		.file 41 "../../DaisyExamples/libDaisy//src/dev/max11300.h"
 772              		.file 42 "../../DaisyExamples/libDaisy//src/hid/logger.h"
 773              		.file 43 "../../DaisyExamples/libDaisy//src/per/gpio.h"
 774              		.file 44 "../../DaisyExamples/libDaisy//src/dev/sdram.h"
 775              		.file 45 "/usr/lib/gcc/arm-none-eabi/13.2.0/include/stdarg.h"
ARM GAS  /tmp/cckBeWOW.s 			page 30


 776              		.file 46 "/usr/arm-none-eabi/include/stdio.h"
 777              		.file 47 "/usr/arm-none-eabi/include/string.h"
 778              		.file 48 "../../DaisyExamples/DaisySP//Source/Control/adenv.h"
 779              		.file 49 "../../DaisyExamples/DaisySP//Source/Utility/dsp.h"
 780              		.file 50 "/usr/arm-none-eabi/include/wchar.h"
 781              		.file 51 "/usr/arm-none-eabi/include/locale.h"
 782              		.file 52 "../../DaisyExamples/libDaisy//src/dev/sr_595.h"
 783              		.file 53 "<built-in>"
ARM GAS  /tmp/cckBeWOW.s 			page 31


DEFINED SYMBOLS
                            *ABS*:00000000 adc_and_log.cpp
     /tmp/cckBeWOW.s:20     .text._ZN5daisy9DaisySeedD2Ev:00000000 $t
     /tmp/cckBeWOW.s:27     .text._ZN5daisy9DaisySeedD2Ev:00000000 _ZN5daisy9DaisySeedD2Ev
     /tmp/cckBeWOW.s:27     .text._ZN5daisy9DaisySeedD2Ev:00000000 _ZN5daisy9DaisySeedD1Ev
     /tmp/cckBeWOW.s:68     .text._Z11store_valuet:00000000 $t
     /tmp/cckBeWOW.s:75     .text._Z11store_valuet:00000000 _Z11store_valuet
     /tmp/cckBeWOW.s:105    .text._Z11store_valuet:00000014 $d
     /tmp/cckBeWOW.s:730    .bss._ZL11value_count:00000000 _ZL11value_count
     /tmp/cckBeWOW.s:110    .rodata._Z16get_avg_from_ramv.str1.4:00000000 $d
     /tmp/cckBeWOW.s:114    .text._Z16get_avg_from_ramv:00000000 $t
     /tmp/cckBeWOW.s:121    .text._Z16get_avg_from_ramv:00000000 _Z16get_avg_from_ramv
     /tmp/cckBeWOW.s:205    .text._Z16get_avg_from_ramv:00000030 $d
     /tmp/cckBeWOW.s:213    .text._Z19collect_temperaturev:00000000 $t
     /tmp/cckBeWOW.s:220    .text._Z19collect_temperaturev:00000000 _Z19collect_temperaturev
     /tmp/cckBeWOW.s:301    .text._Z19collect_temperaturev:0000002c $d
     /tmp/cckBeWOW.s:736    .bss._ZL2hw:00000000 _ZL2hw
     /tmp/cckBeWOW.s:307    .rodata.main.str1.4:00000000 $d
     /tmp/cckBeWOW.s:320    .text.startup.main:00000000 $t
     /tmp/cckBeWOW.s:327    .text.startup.main:00000000 main
     /tmp/cckBeWOW.s:602    .text.startup.main:000000cc $d
     /tmp/cckBeWOW.s:616    .text.startup._GLOBAL__sub_I__Z11store_valuet:00000000 $t
     /tmp/cckBeWOW.s:622    .text.startup._GLOBAL__sub_I__Z11store_valuet:00000000 _GLOBAL__sub_I__Z11store_valuet
     /tmp/cckBeWOW.s:715    .text.startup._GLOBAL__sub_I__Z11store_valuet:00000014 $d
     /tmp/cckBeWOW.s:724    .init_array:00000000 $d
     /tmp/cckBeWOW.s:727    .bss._ZL11value_count:00000000 $d
     /tmp/cckBeWOW.s:733    .bss._ZL2hw:00000000 $d
                           .group:00000000 _ZN5daisy9DaisySeedD5Ev

UNDEFINED SYMBOLS
_ZN5daisy6System5DelayEm
_ZN5daisy6LoggerILNS_17LoggerDestinationE1EE9PrintLineEPKcz
_ZNK5daisy9AdcHandle3GetEh
_ZN5daisy9DaisySeed9ConfigureEv
_ZN5daisy9DaisySeed4InitEb
_ZN5daisy6LoggerILNS_17LoggerDestinationE1EE8StartLogEb
_ZN5daisy9DaisySeed6GetPinEh
_ZN5daisy3Led4InitE12dsy_gpio_pinbf
_ZN5daisy16AdcChannelConfig10InitSingleE12dsy_gpio_pin
_ZN5daisy9AdcHandle4InitEPNS_16AdcChannelConfigEjNS0_12OverSamplingE
_ZN5daisy9AdcHandle5StartEv
__aeabi_atexit
__dso_handle
